
.\dev.ino.elf:     file format elf32-avr


Disassembly of section .text:

00000000 <__vectors>:
       0:	0c 94 53 08 	jmp	0x10a6	; 0x10a6 <__ctors_end>
       4:	0c 94 70 08 	jmp	0x10e0	; 0x10e0 <__bad_interrupt>
       8:	0c 94 70 08 	jmp	0x10e0	; 0x10e0 <__bad_interrupt>
       c:	0c 94 70 08 	jmp	0x10e0	; 0x10e0 <__bad_interrupt>
      10:	0c 94 70 08 	jmp	0x10e0	; 0x10e0 <__bad_interrupt>
      14:	0c 94 70 08 	jmp	0x10e0	; 0x10e0 <__bad_interrupt>
      18:	0c 94 70 08 	jmp	0x10e0	; 0x10e0 <__bad_interrupt>
      1c:	0c 94 70 08 	jmp	0x10e0	; 0x10e0 <__bad_interrupt>
      20:	0c 94 70 08 	jmp	0x10e0	; 0x10e0 <__bad_interrupt>
      24:	0c 94 70 08 	jmp	0x10e0	; 0x10e0 <__bad_interrupt>
      28:	0c 94 70 08 	jmp	0x10e0	; 0x10e0 <__bad_interrupt>
      2c:	0c 94 70 08 	jmp	0x10e0	; 0x10e0 <__bad_interrupt>
      30:	0c 94 70 08 	jmp	0x10e0	; 0x10e0 <__bad_interrupt>
      34:	0c 94 70 08 	jmp	0x10e0	; 0x10e0 <__bad_interrupt>
      38:	0c 94 70 08 	jmp	0x10e0	; 0x10e0 <__bad_interrupt>
      3c:	0c 94 70 08 	jmp	0x10e0	; 0x10e0 <__bad_interrupt>
      40:	0c 94 91 08 	jmp	0x1122	; 0x1122 <__vector_16>
      44:	0c 94 70 08 	jmp	0x10e0	; 0x10e0 <__bad_interrupt>
      48:	0c 94 70 08 	jmp	0x10e0	; 0x10e0 <__bad_interrupt>
      4c:	0c 94 70 08 	jmp	0x10e0	; 0x10e0 <__bad_interrupt>
      50:	0c 94 70 08 	jmp	0x10e0	; 0x10e0 <__bad_interrupt>
      54:	0c 94 70 08 	jmp	0x10e0	; 0x10e0 <__bad_interrupt>
      58:	0c 94 70 08 	jmp	0x10e0	; 0x10e0 <__bad_interrupt>
      5c:	0c 94 70 08 	jmp	0x10e0	; 0x10e0 <__bad_interrupt>
      60:	0c 94 70 08 	jmp	0x10e0	; 0x10e0 <__bad_interrupt>
      64:	0c 94 70 08 	jmp	0x10e0	; 0x10e0 <__bad_interrupt>

00000068 <__trampolines_end>:
      68:	00 00       	nop
      6a:	00 00       	nop
      6c:	18 1b       	sub	r17, r24
      6e:	1b 03       	fmul	r17, r19
      70:	1b 18       	sub	r1, r11
      72:	20 00       	.word	0x0020	; ????
      74:	03 06       	cpc	r0, r19
      76:	03 04       	cpc	r0, r3
      78:	04 24       	eor	r0, r4
      7a:	24 06       	cpc	r2, r20
      7c:	06 06       	cpc	r0, r22
      7e:	06 36       	cpi	r16, 0x66	; 102
      80:	04 04       	cpc	r0, r4
      82:	06 06       	cpc	r0, r22
      84:	06 06       	cpc	r0, r22
      86:	06 06       	cpc	r0, r22
      88:	06 1e       	adc	r0, r22
      8a:	1e 06       	cpc	r1, r30
      8c:	04 06       	cpc	r0, r20
      8e:	1e 1e       	adc	r1, r30
      90:	1e 06       	cpc	r1, r30
      92:	1e 1e       	adc	r1, r30
      94:	1e 1e       	adc	r1, r30
      96:	1e 06       	cpc	r1, r30
      98:	1e 1c       	adc	r1, r14
      9a:	04 04       	cpc	r0, r4
      9c:	04 04       	cpc	r0, r4
      9e:	1e 1b       	sub	r17, r30
      a0:	18 03       	fmul	r17, r16
      a2:	00 00       	nop
      a4:	18 18       	sub	r1, r8
      a6:	18 18       	sub	r1, r8
      a8:	00 00       	nop
      aa:	00 18       	sub	r0, r0
      ac:	00 00       	nop
      ae:	00 18       	sub	r0, r0
      b0:	1b 03       	fmul	r17, r19
      b2:	26 03       	mulsu	r18, r22
      b4:	06 04       	cpc	r0, r6
      b6:	24 04       	cpc	r2, r4
      b8:	04 24       	eor	r0, r4
      ba:	04 24       	eor	r0, r4
      bc:	04 04       	cpc	r0, r4
      be:	06 1e       	adc	r0, r22
      c0:	36 06       	cpc	r3, r22
      c2:	06 04       	cpc	r0, r6
      c4:	06 06       	cpc	r0, r22
      c6:	04 07       	cpc	r16, r20
      c8:	06 1c       	adc	r0, r6
      ca:	07 04       	cpc	r0, r7
      cc:	06 04       	cpc	r0, r6
      ce:	06 06       	cpc	r0, r22
      d0:	06 07       	cpc	r16, r22
      d2:	06 1e       	adc	r0, r22
      d4:	1e 1c       	adc	r1, r14
      d6:	06 06       	cpc	r0, r22
      d8:	06 1e       	adc	r0, r22
      da:	1e 06       	cpc	r1, r30
      dc:	04 04       	cpc	r0, r4
      de:	1c 1e       	adc	r1, r28
      e0:	03 06       	cpc	r0, r19
      e2:	03 00       	.word	0x0003	; ????
      e4:	00 18       	sub	r0, r0
      e6:	18 18       	sub	r1, r8
      e8:	00 00       	nop
      ea:	00 00       	nop
      ec:	00 00       	nop
      ee:	03 00       	.word	0x0003	; ????
      f0:	00 02       	muls	r16, r16
      f2:	23 06       	cpc	r2, r19
      f4:	03 04       	cpc	r0, r3
      f6:	04 04       	cpc	r0, r4
      f8:	04 04       	cpc	r0, r4
      fa:	04 04       	cpc	r0, r4
      fc:	04 06       	cpc	r0, r20
      fe:	04 04       	cpc	r0, r4
     100:	1e 3c       	cpi	r17, 0xCE	; 206
     102:	06 07       	cpc	r16, r22
     104:	04 04       	cpc	r0, r4
     106:	07 04       	cpc	r0, r7
     108:	04 06       	cpc	r0, r20
     10a:	04 04       	cpc	r0, r4
     10c:	04 04       	cpc	r0, r4
     10e:	04 04       	cpc	r0, r4
     110:	06 04       	cpc	r0, r6
     112:	07 07       	cpc	r16, r23
     114:	1e 06       	cpc	r1, r30
     116:	04 06       	cpc	r0, r20
     118:	06 06       	cpc	r0, r22
     11a:	06 04       	cpc	r0, r6
     11c:	06 04       	cpc	r0, r6
     11e:	04 04       	cpc	r0, r4
     120:	04 06       	cpc	r0, r20
     122:	06 03       	mulsu	r16, r22
     124:	03 00       	.word	0x0003	; ????
     126:	18 00       	.word	0x0018	; ????
     128:	00 00       	nop
     12a:	00 00       	nop
     12c:	00 03       	mulsu	r16, r16
     12e:	03 03       	mulsu	r16, r19
     130:	03 03       	mulsu	r16, r19
     132:	06 04       	cpc	r0, r6
     134:	04 04       	cpc	r0, r4
     136:	04 04       	cpc	r0, r4
     138:	06 06       	cpc	r0, r22
     13a:	04 24       	eor	r0, r4
     13c:	06 04       	cpc	r0, r6
     13e:	06 06       	cpc	r0, r22
     140:	06 18       	sub	r0, r6
     142:	36 04       	cpc	r3, r6
     144:	04 04       	cpc	r0, r4
     146:	04 04       	cpc	r0, r4
     148:	04 04       	cpc	r0, r4
     14a:	04 04       	cpc	r0, r4
     14c:	04 04       	cpc	r0, r4
     14e:	04 04       	cpc	r0, r4
     150:	04 06       	cpc	r0, r20
     152:	04 06       	cpc	r0, r20
     154:	07 06       	cpc	r0, r23
     156:	06 06       	cpc	r0, r22
     158:	06 04       	cpc	r0, r6
     15a:	04 06       	cpc	r0, r20
     15c:	06 06       	cpc	r0, r22
     15e:	06 04       	cpc	r0, r6
     160:	04 06       	cpc	r0, r20
     162:	00 06       	cpc	r0, r16
     164:	00 03       	mulsu	r16, r16
	...
     16e:	00 00       	nop
     170:	06 06       	cpc	r0, r22
     172:	03 04       	cpc	r0, r3
     174:	04 04       	cpc	r0, r4
     176:	24 24       	eor	r2, r4
     178:	06 06       	cpc	r0, r22
     17a:	26 24       	eor	r2, r6
     17c:	04 06       	cpc	r0, r20
     17e:	06 06       	cpc	r0, r22
     180:	00 06       	cpc	r0, r16
     182:	18 34       	cpi	r17, 0x48	; 72
     184:	06 06       	cpc	r0, r22
     186:	04 06       	cpc	r0, r20
     188:	04 04       	cpc	r0, r4
     18a:	04 04       	cpc	r0, r4
     18c:	04 04       	cpc	r0, r4
     18e:	04 04       	cpc	r0, r4
     190:	04 04       	cpc	r0, r4
     192:	06 06       	cpc	r0, r22
     194:	06 06       	cpc	r0, r22
     196:	06 06       	cpc	r0, r22
     198:	06 06       	cpc	r0, r22
     19a:	06 06       	cpc	r0, r22
     19c:	06 06       	cpc	r0, r22
     19e:	04 06       	cpc	r0, r20
     1a0:	04 04       	cpc	r0, r4
     1a2:	06 03       	mulsu	r16, r22
     1a4:	03 00       	.word	0x0003	; ????
     1a6:	00 00       	nop
     1a8:	00 00       	nop
     1aa:	03 00       	.word	0x0003	; ????
     1ac:	03 03       	mulsu	r16, r19
     1ae:	03 03       	mulsu	r16, r19
     1b0:	03 03       	mulsu	r16, r19
     1b2:	06 03       	mulsu	r16, r22
     1b4:	04 04       	cpc	r0, r4
     1b6:	24 34       	cpi	r18, 0x44	; 68
     1b8:	04 06       	cpc	r0, r20
     1ba:	26 34       	cpi	r18, 0x46	; 70
     1bc:	06 04       	cpc	r0, r6
     1be:	04 06       	cpc	r0, r20
     1c0:	06 06       	cpc	r0, r22
     1c2:	06 1e       	adc	r0, r22
     1c4:	3e 06       	cpc	r3, r30
     1c6:	06 06       	cpc	r0, r22
     1c8:	06 04       	cpc	r0, r6
     1ca:	06 04       	cpc	r0, r6
     1cc:	04 04       	cpc	r0, r4
     1ce:	04 04       	cpc	r0, r4
     1d0:	04 04       	cpc	r0, r4
     1d2:	04 07       	cpc	r16, r20
     1d4:	07 06       	cpc	r0, r23
     1d6:	06 04       	cpc	r0, r6
     1d8:	04 04       	cpc	r0, r4
     1da:	04 06       	cpc	r0, r20
     1dc:	06 06       	cpc	r0, r22
     1de:	06 06       	cpc	r0, r22
     1e0:	04 04       	cpc	r0, r4
     1e2:	03 06       	cpc	r0, r19
     1e4:	00 00       	nop
     1e6:	03 00       	.word	0x0003	; ????
     1e8:	00 00       	nop
     1ea:	00 03       	mulsu	r16, r16
     1ec:	03 03       	mulsu	r16, r19
     1ee:	03 03       	mulsu	r16, r19
     1f0:	06 06       	cpc	r0, r22
     1f2:	06 04       	cpc	r0, r6
     1f4:	04 04       	cpc	r0, r4
     1f6:	24 24       	eor	r2, r4
     1f8:	06 04       	cpc	r0, r6
     1fa:	06 24       	eor	r0, r6
     1fc:	04 04       	cpc	r0, r4
     1fe:	04 00       	.word	0x0004	; ????
     200:	06 04       	cpc	r0, r6
     202:	06 06       	cpc	r0, r22
     204:	18 36       	cpi	r17, 0x68	; 104
     206:	00 06       	cpc	r0, r16
     208:	06 07       	cpc	r16, r22
     20a:	06 06       	cpc	r0, r22
     20c:	06 06       	cpc	r0, r22
     20e:	04 04       	cpc	r0, r4
     210:	04 04       	cpc	r0, r4
     212:	06 06       	cpc	r0, r22
     214:	06 06       	cpc	r0, r22
     216:	06 06       	cpc	r0, r22
     218:	06 06       	cpc	r0, r22
     21a:	06 06       	cpc	r0, r22
     21c:	04 06       	cpc	r0, r20
     21e:	04 06       	cpc	r0, r20
     220:	04 04       	cpc	r0, r4
     222:	04 04       	cpc	r0, r4
     224:	03 03       	mulsu	r16, r19
	...
     22e:	03 03       	mulsu	r16, r19
     230:	03 03       	mulsu	r16, r19
     232:	06 03       	mulsu	r16, r22
     234:	04 04       	cpc	r0, r4
     236:	04 00       	.word	0x0004	; ????
     238:	04 04       	cpc	r0, r4
     23a:	04 04       	cpc	r0, r4
     23c:	04 06       	cpc	r0, r20
     23e:	00 06       	cpc	r0, r16
     240:	00 06       	cpc	r0, r16
     242:	06 06       	cpc	r0, r22
     244:	06 00       	.word	0x0006	; ????
     246:	06 06       	cpc	r0, r22
     248:	07 06       	cpc	r0, r23
     24a:	06 06       	cpc	r0, r22
     24c:	07 06       	cpc	r0, r23
     24e:	06 04       	cpc	r0, r6
     250:	04 06       	cpc	r0, r20
     252:	06 06       	cpc	r0, r22
     254:	06 06       	cpc	r0, r22
     256:	06 06       	cpc	r0, r22
     258:	06 06       	cpc	r0, r22
     25a:	06 06       	cpc	r0, r22
     25c:	06 04       	cpc	r0, r6
     25e:	06 04       	cpc	r0, r6
     260:	04 04       	cpc	r0, r4
     262:	04 04       	cpc	r0, r4
     264:	00 06       	cpc	r0, r16
     266:	03 00       	.word	0x0003	; ????
	...
     270:	03 06       	cpc	r0, r19
     272:	03 00       	.word	0x0003	; ????
     274:	03 04       	cpc	r0, r3
     276:	00 00       	nop
     278:	00 00       	nop
     27a:	04 00       	.word	0x0004	; ????
     27c:	04 04       	cpc	r0, r4
     27e:	04 04       	cpc	r0, r4
     280:	06 06       	cpc	r0, r22
     282:	04 06       	cpc	r0, r20
     284:	06 06       	cpc	r0, r22
     286:	06 06       	cpc	r0, r22
     288:	06 04       	cpc	r0, r6
     28a:	06 06       	cpc	r0, r22
     28c:	06 04       	cpc	r0, r6
     28e:	04 04       	cpc	r0, r4
     290:	04 04       	cpc	r0, r4
     292:	06 06       	cpc	r0, r22
     294:	06 06       	cpc	r0, r22
     296:	06 06       	cpc	r0, r22
     298:	06 06       	cpc	r0, r22
     29a:	06 06       	cpc	r0, r22
     29c:	04 04       	cpc	r0, r4
     29e:	04 06       	cpc	r0, r20
     2a0:	06 06       	cpc	r0, r22
     2a2:	04 04       	cpc	r0, r4
     2a4:	04 04       	cpc	r0, r4
     2a6:	06 03       	mulsu	r16, r22
	...
     2b0:	03 03       	mulsu	r16, r19
     2b2:	04 04       	cpc	r0, r4
     2b4:	04 00       	.word	0x0004	; ????
     2b6:	00 00       	nop
     2b8:	30 34       	cpi	r19, 0x40	; 64
     2ba:	00 20       	and	r0, r0
     2bc:	33 34       	cpi	r19, 0x43	; 67
     2be:	04 04       	cpc	r0, r4
     2c0:	04 00       	.word	0x0004	; ????
     2c2:	04 00       	.word	0x0004	; ????
     2c4:	07 06       	cpc	r0, r23
     2c6:	06 06       	cpc	r0, r22
     2c8:	00 06       	cpc	r0, r16
     2ca:	00 06       	cpc	r0, r16
     2cc:	04 06       	cpc	r0, r20
     2ce:	03 03       	mulsu	r16, r19
     2d0:	00 03       	mulsu	r16, r16
     2d2:	06 04       	cpc	r0, r6
     2d4:	06 06       	cpc	r0, r22
     2d6:	06 04       	cpc	r0, r6
     2d8:	06 06       	cpc	r0, r22
     2da:	06 04       	cpc	r0, r6
     2dc:	04 06       	cpc	r0, r20
     2de:	06 06       	cpc	r0, r22
     2e0:	06 04       	cpc	r0, r6
     2e2:	06 04       	cpc	r0, r6
     2e4:	04 03       	mulsu	r16, r20
	...
     2f2:	00 04       	cpc	r0, r0
     2f4:	1c 18       	sub	r1, r12
     2f6:	00 00       	nop
     2f8:	00 34       	cpi	r16, 0x40	; 64
     2fa:	04 00       	.word	0x0004	; ????
     2fc:	00 1c       	adc	r0, r0
     2fe:	34 04       	cpc	r3, r4
     300:	04 04       	cpc	r0, r4
     302:	00 04       	cpc	r0, r0
     304:	04 04       	cpc	r0, r4
     306:	06 04       	cpc	r0, r6
     308:	04 00       	.word	0x0004	; ????
     30a:	04 04       	cpc	r0, r4
     30c:	06 03       	mulsu	r16, r22
     30e:	00 00       	nop
     310:	03 00       	.word	0x0003	; ????
     312:	03 04       	cpc	r0, r3
     314:	04 06       	cpc	r0, r20
     316:	06 06       	cpc	r0, r22
     318:	06 04       	cpc	r0, r6
     31a:	06 06       	cpc	r0, r22
     31c:	04 06       	cpc	r0, r20
     31e:	06 04       	cpc	r0, r6
     320:	06 06       	cpc	r0, r22
     322:	04 04       	cpc	r0, r4
     324:	04 03       	mulsu	r16, r20
     326:	03 00       	.word	0x0003	; ????
	...
     330:	00 00       	nop
     332:	00 04       	cpc	r0, r0
     334:	03 00       	.word	0x0003	; ????
     336:	00 00       	nop
     338:	04 00       	.word	0x0004	; ????
     33a:	00 00       	nop
     33c:	00 00       	nop
     33e:	04 1c       	adc	r0, r4
     340:	30 04       	cpc	r3, r0
     342:	04 04       	cpc	r0, r4
     344:	04 04       	cpc	r0, r4
     346:	04 04       	cpc	r0, r4
     348:	04 06       	cpc	r0, r20
     34a:	04 06       	cpc	r0, r20
     34c:	03 03       	mulsu	r16, r19
     34e:	00 00       	nop
     350:	00 03       	mulsu	r16, r16
     352:	00 06       	cpc	r0, r16
     354:	04 06       	cpc	r0, r20
     356:	04 06       	cpc	r0, r20
     358:	06 06       	cpc	r0, r22
     35a:	04 04       	cpc	r0, r4
     35c:	06 04       	cpc	r0, r6
     35e:	06 06       	cpc	r0, r22
     360:	06 04       	cpc	r0, r6
     362:	06 04       	cpc	r0, r6
     364:	04 06       	cpc	r0, r20
     366:	03 00       	.word	0x0003	; ????
	...
     378:	04 00       	.word	0x0004	; ????
     37a:	00 00       	nop
     37c:	00 00       	nop
     37e:	00 04       	cpc	r0, r0
     380:	04 04       	cpc	r0, r4
     382:	04 04       	cpc	r0, r4
     384:	04 04       	cpc	r0, r4
     386:	04 04       	cpc	r0, r4
     388:	06 00       	.word	0x0006	; ????
     38a:	06 00       	.word	0x0006	; ????
     38c:	00 03       	mulsu	r16, r16
     38e:	00 00       	nop
     390:	00 03       	mulsu	r16, r16
     392:	03 00       	.word	0x0003	; ????
     394:	06 04       	cpc	r0, r6
     396:	06 04       	cpc	r0, r6
     398:	04 04       	cpc	r0, r4
     39a:	04 06       	cpc	r0, r20
     39c:	03 06       	cpc	r0, r19
     39e:	04 06       	cpc	r0, r20
     3a0:	06 06       	cpc	r0, r22
     3a2:	04 04       	cpc	r0, r4
     3a4:	04 04       	cpc	r0, r4
     3a6:	06 00       	.word	0x0006	; ????
	...
     3b0:	10 00       	.word	0x0010	; ????
	...
     3be:	00 04       	cpc	r0, r0
     3c0:	04 04       	cpc	r0, r4
     3c2:	04 14       	cp	r0, r4
     3c4:	06 04       	cpc	r0, r6
     3c6:	06 06       	cpc	r0, r22
     3c8:	00 06       	cpc	r0, r16
     3ca:	00 00       	nop
     3cc:	03 00       	.word	0x0003	; ????
     3ce:	03 00       	.word	0x0003	; ????
     3d0:	00 00       	nop
     3d2:	03 03       	mulsu	r16, r19
     3d4:	00 03       	mulsu	r16, r16
     3d6:	03 04       	cpc	r0, r3
     3d8:	04 00       	.word	0x0004	; ????
     3da:	06 03       	mulsu	r16, r22
     3dc:	03 03       	mulsu	r16, r19
     3de:	03 04       	cpc	r0, r3
     3e0:	04 04       	cpc	r0, r4
     3e2:	04 04       	cpc	r0, r4
     3e4:	04 04       	cpc	r0, r4
     3e6:	06 00       	.word	0x0006	; ????
     3e8:	00 00       	nop
     3ea:	00 00       	nop
     3ec:	10 30       	cpi	r17, 0x00	; 0
     3ee:	00 10       	cpse	r0, r0
     3f0:	00 00       	nop
     3f2:	04 00       	.word	0x0004	; ????
     3f4:	00 00       	nop
     3f6:	00 00       	nop
     3f8:	00 00       	nop
     3fa:	00 04       	cpc	r0, r0
     3fc:	04 04       	cpc	r0, r4
     3fe:	00 00       	nop
     400:	00 00       	nop
     402:	00 00       	nop
     404:	00 16       	cp	r0, r16
     406:	00 00       	nop
     408:	06 00       	.word	0x0006	; ????
     40a:	03 00       	.word	0x0003	; ????
     40c:	00 00       	nop
     40e:	03 00       	.word	0x0003	; ????
     410:	03 03       	mulsu	r16, r19
     412:	00 03       	mulsu	r16, r16
     414:	00 03       	mulsu	r16, r16
     416:	03 03       	mulsu	r16, r19
     418:	00 00       	nop
     41a:	03 03       	mulsu	r16, r19
     41c:	03 03       	mulsu	r16, r19
     41e:	03 04       	cpc	r0, r3
     420:	03 03       	mulsu	r16, r19
     422:	03 04       	cpc	r0, r3
     424:	04 03       	mulsu	r16, r20
     426:	04 04       	cpc	r0, r4
     428:	00 00       	nop
     42a:	10 00       	.word	0x0010	; ????
     42c:	13 03       	mulsu	r17, r19
     42e:	33 00       	.word	0x0033	; ????
     430:	03 03       	mulsu	r16, r19
     432:	04 00       	.word	0x0004	; ????
     434:	00 00       	nop
     436:	04 00       	.word	0x0004	; ????
     438:	00 04       	cpc	r0, r0
     43a:	04 00       	.word	0x0004	; ????
     43c:	00 00       	nop
     43e:	00 06       	cpc	r0, r16
     440:	00 00       	nop
     442:	00 30       	cpi	r16, 0x00	; 0
     444:	10 00       	.word	0x0010	; ????
     446:	30 00       	.word	0x0030	; ????
     448:	10 33       	cpi	r17, 0x30	; 48
     44a:	03 00       	.word	0x0003	; ????
     44c:	00 00       	nop
     44e:	03 03       	mulsu	r16, r19
     450:	13 00       	.word	0x0013	; ????
     452:	03 03       	mulsu	r16, r19
     454:	03 03       	mulsu	r16, r19
     456:	03 00       	.word	0x0003	; ????
     458:	03 03       	mulsu	r16, r19
     45a:	00 00       	nop
     45c:	00 00       	nop
     45e:	03 03       	mulsu	r16, r19
     460:	03 00       	.word	0x0003	; ????
     462:	00 00       	nop
     464:	03 03       	mulsu	r16, r19
     466:	03 03       	mulsu	r16, r19
     468:	19 19       	sub	r17, r9
     46a:	19 19       	sub	r17, r9
     46c:	03 00       	.word	0x0003	; ????
     46e:	00 08       	sbc	r0, r0
     470:	24 03       	mulsu	r18, r20
     472:	03 23       	and	r16, r19
     474:	00 25       	eor	r16, r0
     476:	24 26       	eor	r2, r20
     478:	06 36       	cpi	r16, 0x66	; 102
     47a:	06 05       	cpc	r16, r6
     47c:	05 05       	cpc	r16, r5
     47e:	25 3d       	cpi	r18, 0xD5	; 213
     480:	1e 1f       	adc	r17, r30
     482:	1f 1d       	adc	r17, r15
     484:	1d 1e       	adc	r1, r29
     486:	1e 1e       	adc	r1, r30
     488:	0e 07       	cpc	r16, r30
     48a:	27 0f       	add	r18, r23
     48c:	1e 1f       	adc	r17, r30
     48e:	07 06       	cpc	r0, r23
     490:	06 1d       	adc	r16, r6
     492:	05 05       	cpc	r16, r5
     494:	06 05       	cpc	r16, r6
     496:	05 0d       	add	r16, r5
     498:	05 26       	eor	r0, r21
     49a:	1e 1e       	adc	r1, r30
     49c:	1e 1e       	adc	r1, r30
     49e:	05 00       	.word	0x0005	; ????
     4a0:	03 18       	sub	r0, r3
     4a2:	1b 0b       	sbc	r17, r27
     4a4:	01 03       	mulsu	r16, r17
     4a6:	03 01       	movw	r0, r6
     4a8:	09 1b       	sub	r16, r25
     4aa:	1b 01       	movw	r2, r22
     4ac:	1b 1b       	sub	r17, r27
     4ae:	1b 03       	fmul	r17, r19
     4b0:	00 18       	sub	r0, r0
     4b2:	05 20       	and	r0, r5
     4b4:	05 26       	eor	r0, r21
     4b6:	06 26       	eor	r0, r22
     4b8:	06 06       	cpc	r0, r22
     4ba:	07 06       	cpc	r0, r23
     4bc:	1e 1e       	adc	r1, r30
     4be:	05 05       	cpc	r16, r5
     4c0:	3e 1e       	adc	r3, r30
     4c2:	1d 1e       	adc	r1, r29
     4c4:	1f 1f       	adc	r17, r31
     4c6:	1e 0e       	add	r1, r30
     4c8:	05 06       	cpc	r0, r21
     4ca:	0e 07       	cpc	r16, r30
     4cc:	0d 1f       	adc	r16, r29
     4ce:	0f 1f       	adc	r16, r31
     4d0:	1f 1e       	adc	r1, r31
     4d2:	1d 05       	cpc	r17, r13
     4d4:	05 07       	cpc	r16, r21
     4d6:	0d 0e       	add	r0, r29
     4d8:	0e 26       	eor	r0, r30
     4da:	05 1d       	adc	r16, r5
     4dc:	1f 1f       	adc	r17, r31
     4de:	06 05       	cpc	r16, r6
     4e0:	18 1d       	adc	r17, r8
     4e2:	08 0b       	sbc	r16, r24
     4e4:	0b 21       	and	r16, r11
     4e6:	01 21       	and	r16, r1
     4e8:	09 19       	sub	r16, r9
     4ea:	19 1b       	sub	r17, r25
     4ec:	19 1b       	sub	r17, r25
     4ee:	18 1b       	sub	r17, r24
     4f0:	1b 19       	sub	r17, r11
     4f2:	04 25       	eor	r16, r4
     4f4:	04 06       	cpc	r0, r20
     4f6:	06 06       	cpc	r0, r22
     4f8:	06 06       	cpc	r0, r22
     4fa:	1e 27       	eor	r17, r30
     4fc:	1e 1d       	adc	r17, r14
     4fe:	1e 1e       	adc	r1, r30
     500:	07 36       	cpi	r16, 0x67	; 103
     502:	1f 1e       	adc	r1, r31
     504:	1e 1e       	adc	r1, r30
     506:	0e 06       	cpc	r0, r30
     508:	1e 0d       	add	r17, r14
     50a:	06 06       	cpc	r0, r22
     50c:	0e 0e       	add	r0, r30
     50e:	07 0e       	add	r0, r23
     510:	1d 1e       	adc	r1, r29
     512:	1e 0e       	add	r1, r30
     514:	07 0d       	add	r16, r7
     516:	0e 0d       	add	r16, r14
     518:	0d 0d       	add	r16, r13
     51a:	1d 1e       	adc	r1, r29
     51c:	1d 1e       	adc	r1, r29
     51e:	1e 1e       	adc	r1, r30
     520:	1e 0d       	add	r17, r14
     522:	1d 08       	sbc	r1, r13
     524:	08 0b       	sbc	r16, r24
     526:	23 19       	sub	r18, r3
     528:	0b 0b       	sbc	r16, r27
     52a:	1b 1b       	sub	r17, r27
     52c:	1b 18       	sub	r1, r11
     52e:	18 18       	sub	r1, r8
     530:	18 1c       	adc	r1, r8
     532:	1d 26       	eor	r1, r29
     534:	06 06       	cpc	r0, r22
     536:	06 06       	cpc	r0, r22
     538:	05 0f       	add	r16, r21
     53a:	1e 36       	cpi	r17, 0x6E	; 110
     53c:	1d 1e       	adc	r1, r29
     53e:	1d 1d       	adc	r17, r13
     540:	1d 00       	.word	0x001d	; ????
     542:	3d 1e       	adc	r3, r29
     544:	1f 0e       	add	r1, r31
     546:	0e 06       	cpc	r0, r30
     548:	0e 0e       	add	r0, r30
     54a:	06 0e       	add	r0, r22
     54c:	06 08       	sbc	r0, r6
     54e:	0e 06       	cpc	r0, r30
     550:	0e 1d       	adc	r16, r14
     552:	0e 1f       	adc	r16, r30
     554:	0e 1e       	adc	r0, r30
     556:	0e 0d       	add	r16, r14
     558:	1d 0e       	add	r1, r29
     55a:	1e 1e       	adc	r1, r30
     55c:	1e 1d       	adc	r17, r14
     55e:	0d 1f       	adc	r16, r29
     560:	1e 1d       	adc	r17, r14
     562:	1b 1d       	adc	r17, r11
     564:	1b 18       	sub	r1, r11
     566:	19 19       	sub	r17, r9
     568:	09 09       	sbc	r16, r9
     56a:	1b 19       	sub	r17, r11
     56c:	1b 1b       	sub	r17, r27
     56e:	1b 1b       	sub	r17, r27
     570:	1d 1d       	adc	r17, r13
     572:	1c 1e       	adc	r1, r28
     574:	27 06       	cpc	r2, r23
     576:	06 36       	cpi	r16, 0x66	; 102
     578:	0d 1d       	adc	r16, r13
     57a:	07 36       	cpi	r16, 0x67	; 103
     57c:	1f 1d       	adc	r17, r15
     57e:	1d 1d       	adc	r17, r13
     580:	18 0d       	add	r17, r8
     582:	00 3e       	cpi	r16, 0xE0	; 224
     584:	0d 0f       	add	r16, r29
     586:	06 0f       	add	r16, r22
     588:	0e 06       	cpc	r0, r30
     58a:	06 0e       	add	r0, r22
     58c:	00 0e       	add	r0, r16
     58e:	08 06       	cpc	r0, r24
     590:	08 1e       	adc	r0, r24
     592:	1d 1d       	adc	r17, r13
     594:	1d 1d       	adc	r17, r13
     596:	0d 1e       	adc	r0, r29
     598:	0e 1d       	adc	r16, r14
     59a:	1d 1d       	adc	r17, r13
     59c:	1d 0d       	add	r17, r13
     59e:	1e 0d       	add	r17, r14
     5a0:	0e 1e       	adc	r0, r30
     5a2:	1d 1c       	adc	r1, r13
     5a4:	18 1b       	sub	r17, r24
     5a6:	0b 19       	sub	r16, r11
     5a8:	09 0b       	sbc	r16, r25
     5aa:	0c 0b       	sbc	r16, r28
     5ac:	1c 0c       	add	r1, r12
     5ae:	18 18       	sub	r1, r8
     5b0:	18 1c       	adc	r1, r8
     5b2:	1d 1c       	adc	r1, r13
     5b4:	1e 1e       	adc	r1, r30
     5b6:	06 2e       	mov	r0, r22
     5b8:	1e 1d       	adc	r17, r14
     5ba:	07 2e       	mov	r0, r23
     5bc:	1d 0e       	add	r1, r29
     5be:	1e 0e       	add	r1, r30
     5c0:	0e 0e       	add	r0, r30
     5c2:	0d 05       	cpc	r16, r13
     5c4:	36 0e       	add	r3, r22
     5c6:	0e 06       	cpc	r0, r30
     5c8:	0d 06       	cpc	r0, r29
     5ca:	05 0e       	add	r0, r21
     5cc:	06 06       	cpc	r0, r22
     5ce:	0e 08       	sbc	r0, r14
     5d0:	06 08       	sbc	r0, r6
     5d2:	1e 1e       	adc	r1, r30
     5d4:	1e 0f       	add	r17, r30
     5d6:	1f 0e       	add	r1, r31
     5d8:	0e 0f       	add	r16, r30
     5da:	1e 0d       	add	r17, r14
     5dc:	0e 0e       	add	r0, r30
     5de:	0d 0d       	add	r16, r13
     5e0:	1f 0e       	add	r1, r31
     5e2:	18 0d       	add	r17, r8
     5e4:	1b 0b       	sbc	r17, r27
     5e6:	08 0b       	sbc	r16, r24
     5e8:	03 09       	sbc	r16, r3
     5ea:	0b 08       	sbc	r0, r11
     5ec:	08 08       	sbc	r0, r8
     5ee:	0c 18       	sub	r0, r12
     5f0:	0d 1d       	adc	r16, r13
     5f2:	1f 0e       	add	r1, r31
     5f4:	1e 0e       	add	r1, r30
     5f6:	06 36       	cpi	r16, 0x66	; 102
     5f8:	0d 0e       	add	r0, r29
     5fa:	27 36       	cpi	r18, 0x67	; 103
     5fc:	0e 1e       	adc	r0, r30
     5fe:	0e 08       	sbc	r0, r14
     600:	0d 0e       	add	r0, r29
     602:	06 06       	cpc	r0, r22
     604:	00 3d       	cpi	r16, 0xD0	; 208
     606:	00 0f       	add	r16, r16
     608:	1f 06       	cpc	r1, r31
     60a:	05 0f       	add	r16, r21
     60c:	0f 07       	cpc	r16, r31
     60e:	06 0e       	add	r0, r22
     610:	00 0e       	add	r0, r16
     612:	0d 1f       	adc	r16, r29
     614:	0d 0d       	add	r16, r13
     616:	0e 0e       	add	r0, r30
     618:	0e 0e       	add	r0, r30
     61a:	0e 0d       	add	r16, r14
     61c:	0e 1d       	adc	r16, r14
     61e:	0e 0d       	add	r16, r14
     620:	0e 0e       	add	r0, r30
     622:	0e 0e       	add	r0, r30
     624:	0c 08       	sbc	r0, r12
     626:	0b 09       	sbc	r16, r11
     628:	03 0b       	sbc	r16, r19
     62a:	03 0b       	sbc	r16, r19
     62c:	0b 0b       	sbc	r16, r27
     62e:	0c 0c       	add	r0, r12
     630:	18 0c       	add	r1, r8
     632:	0d 1c       	adc	r0, r13
     634:	0e 0e       	add	r0, r30
     636:	26 24       	eor	r2, r6
     638:	0e 08       	sbc	r0, r14
     63a:	26 26       	eor	r2, r22
     63c:	0e 0d       	add	r16, r14
     63e:	08 0d       	add	r16, r8
     640:	08 0d       	add	r16, r8
     642:	0d 05       	cpc	r16, r13
     644:	0d 00       	.word	0x000d	; ????
     646:	06 05       	cpc	r16, r6
     648:	0e 05       	cpc	r16, r14
     64a:	0e 06       	cpc	r0, r30
     64c:	0e 0f       	add	r16, r30
     64e:	07 0e       	add	r0, r23
     650:	08 05       	cpc	r16, r8
     652:	07 0e       	add	r0, r23
     654:	0e 0e       	add	r0, r30
     656:	0d 0d       	add	r16, r13
     658:	0d 0d       	add	r16, r13
     65a:	0d 0d       	add	r16, r13
     65c:	1d 0e       	add	r1, r29
     65e:	1d 0e       	add	r1, r29
     660:	0e 0e       	add	r0, r30
     662:	0e 0e       	add	r0, r30
     664:	0b 0d       	add	r16, r11
     666:	08 09       	sbc	r16, r8
     668:	00 00       	nop
     66a:	08 0b       	sbc	r16, r24
     66c:	0b 0b       	sbc	r16, r27
     66e:	0b 0b       	sbc	r16, r27
     670:	0c 0d       	add	r16, r12
     672:	0c 09       	sbc	r16, r12
     674:	0c 08       	sbc	r0, r12
     676:	23 21       	and	r18, r3
     678:	08 08       	sbc	r0, r8
     67a:	20 24       	eor	r2, r0
     67c:	0e 0e       	add	r0, r30
     67e:	0e 0e       	add	r0, r30
     680:	05 0d       	add	r16, r5
     682:	0e 0e       	add	r0, r30
     684:	0d 05       	cpc	r16, r13
     686:	07 0d       	add	r16, r7
     688:	0d 06       	cpc	r0, r29
     68a:	05 0f       	add	r16, r21
     68c:	07 0e       	add	r0, r23
     68e:	06 00       	.word	0x0006	; ????
     690:	0e 06       	cpc	r0, r30
     692:	0f 0f       	add	r16, r31
     694:	0f 0d       	add	r16, r15
     696:	1d 1e       	adc	r1, r29
     698:	1e 0e       	add	r1, r30
     69a:	0d 0d       	add	r16, r13
     69c:	0e 0e       	add	r0, r30
     69e:	1e 0d       	add	r17, r14
     6a0:	0e 0d       	add	r16, r14
     6a2:	0e 06       	cpc	r0, r30
     6a4:	0e 0e       	add	r0, r30
     6a6:	0d 08       	sbc	r0, r13
     6a8:	00 00       	nop
     6aa:	00 08       	sbc	r0, r0
     6ac:	00 08       	sbc	r0, r0
     6ae:	08 08       	sbc	r0, r8
     6b0:	04 0c       	add	r0, r4
     6b2:	08 08       	sbc	r0, r8
     6b4:	08 0b       	sbc	r16, r24
     6b6:	21 20       	and	r2, r1
     6b8:	28 2e       	mov	r2, r24
     6ba:	24 01       	movw	r4, r8
     6bc:	28 2f       	mov	r18, r24
     6be:	06 06       	cpc	r0, r22
     6c0:	06 00       	.word	0x0006	; ????
     6c2:	0e 08       	sbc	r0, r14
     6c4:	06 05       	cpc	r16, r6
     6c6:	0d 0e       	add	r0, r29
     6c8:	00 06       	cpc	r0, r16
     6ca:	08 07       	cpc	r16, r24
     6cc:	06 0d       	add	r16, r6
     6ce:	0c 04       	cpc	r0, r12
     6d0:	0b 0c       	add	r0, r11
     6d2:	05 0e       	add	r0, r21
     6d4:	0f 1f       	adc	r16, r31
     6d6:	0f 0f       	add	r16, r31
     6d8:	0d 1d       	adc	r16, r13
     6da:	0d 0e       	add	r0, r29
     6dc:	0e 0d       	add	r16, r14
     6de:	0e 0e       	add	r0, r30
     6e0:	0d 0e       	add	r0, r29
     6e2:	0d 0e       	add	r0, r29
     6e4:	06 08       	sbc	r0, r6
     6e6:	0b 0b       	sbc	r16, r27
     6e8:	00 00       	nop
     6ea:	00 00       	nop
     6ec:	00 00       	nop
     6ee:	08 00       	.word	0x0008	; ????
     6f0:	08 01       	movw	r0, r16
     6f2:	09 1e       	adc	r0, r25
     6f4:	20 21       	and	r18, r0
     6f6:	00 00       	nop
     6f8:	20 28       	or	r2, r0
     6fa:	07 00       	.word	0x0007	; ????
     6fc:	23 26       	eor	r2, r19
     6fe:	2e 06       	cpc	r2, r30
     700:	06 06       	cpc	r0, r22
     702:	00 06       	cpc	r0, r16
     704:	06 0f       	add	r16, r22
     706:	07 06       	cpc	r0, r23
     708:	0e 08       	sbc	r0, r14
     70a:	06 0e       	add	r0, r22
     70c:	0d 04       	cpc	r0, r13
     70e:	0b 0b       	sbc	r16, r27
     710:	04 0b       	sbc	r16, r20
     712:	04 0e       	add	r0, r20
     714:	06 0d       	add	r16, r6
     716:	0d 0d       	add	r16, r13
     718:	0d 0e       	add	r0, r29
     71a:	0d 0d       	add	r16, r13
     71c:	07 05       	cpc	r16, r7
     71e:	0d 0e       	add	r0, r29
     720:	0f 0d       	add	r16, r15
     722:	0e 0e       	add	r0, r30
     724:	16 10       	cpse	r1, r6
     726:	00 13       	cpse	r16, r16
     728:	01 01       	movw	r0, r2
     72a:	01 01       	movw	r0, r2
     72c:	00 00       	nop
     72e:	00 00       	nop
     730:	00 00       	nop
     732:	19 00       	.word	0x0019	; ????
     734:	04 1b       	sub	r16, r20
     736:	01 00       	.word	0x0001	; ????
     738:	18 1c       	adc	r1, r8
     73a:	00 00       	nop
     73c:	1b 1c       	adc	r1, r11
     73e:	1e 26       	eor	r1, r30
     740:	2c 06       	cpc	r2, r28
     742:	06 07       	cpc	r16, r22
     744:	06 06       	cpc	r0, r22
     746:	0e 06       	cpc	r0, r30
     748:	07 05       	cpc	r16, r7
     74a:	0e 05       	cpc	r16, r14
     74c:	04 08       	sbc	r0, r4
     74e:	03 0b       	sbc	r16, r19
     750:	03 08       	sbc	r0, r3
     752:	03 05       	cpc	r16, r3
     754:	0f 0d       	add	r16, r15
     756:	0e 05       	cpc	r16, r14
     758:	0d 0d       	add	r16, r13
     75a:	06 06       	cpc	r0, r22
     75c:	0d 06       	cpc	r0, r29
     75e:	0d 05       	cpc	r16, r13
     760:	0d 16       	cp	r0, r29
     762:	05 16       	cp	r0, r21
     764:	06 05       	cpc	r16, r6
     766:	10 03       	mulsu	r17, r16
     768:	03 01       	movw	r0, r6
     76a:	01 01       	movw	r0, r2
     76c:	01 01       	movw	r0, r2
     76e:	00 00       	nop
     770:	00 00       	nop
     772:	18 19       	sub	r17, r8
     774:	18 01       	movw	r2, r16
     776:	00 00       	nop
     778:	00 1c       	adc	r0, r0
     77a:	00 19       	sub	r16, r0
     77c:	04 04       	cpc	r0, r4
     77e:	04 18       	sub	r0, r4
     780:	1e 00       	.word	0x001e	; ????
     782:	06 06       	cpc	r0, r22
     784:	06 06       	cpc	r0, r22
     786:	06 06       	cpc	r0, r22
     788:	05 03       	mulsu	r16, r21
     78a:	05 03       	mulsu	r16, r21
     78c:	03 04       	cpc	r0, r3
     78e:	0b 03       	fmul	r16, r19
     790:	03 00       	.word	0x0003	; ????
     792:	00 03       	mulsu	r16, r16
     794:	05 0e       	add	r0, r21
     796:	05 06       	cpc	r0, r21
     798:	06 06       	cpc	r0, r22
     79a:	06 0d       	add	r16, r6
     79c:	00 0d       	add	r16, r0
     79e:	06 0d       	add	r16, r6
     7a0:	15 05       	cpc	r17, r5
     7a2:	16 06       	cpc	r1, r22
     7a4:	07 06       	cpc	r0, r23
     7a6:	05 13       	cpse	r16, r21
     7a8:	03 03       	mulsu	r16, r19
     7aa:	01 01       	movw	r0, r2
     7ac:	01 01       	movw	r0, r2
     7ae:	01 11       	cpse	r16, r1
     7b0:	20 18       	sub	r2, r0
     7b2:	18 04       	cpc	r1, r8
     7b4:	00 04       	cpc	r0, r0
     7b6:	00 04       	cpc	r0, r0
     7b8:	04 00       	.word	0x0004	; ????
     7ba:	01 00       	.word	0x0001	; ????
     7bc:	04 00       	.word	0x0004	; ????
     7be:	04 00       	.word	0x0004	; ????
     7c0:	18 06       	cpc	r1, r24
     7c2:	16 27       	eor	r17, r22
     7c4:	05 06       	cpc	r0, r21
     7c6:	05 05       	cpc	r16, r5
     7c8:	03 05       	cpc	r16, r3
     7ca:	03 03       	mulsu	r16, r19
     7cc:	04 03       	mulsu	r16, r20
     7ce:	04 03       	mulsu	r16, r20
     7d0:	03 03       	mulsu	r16, r19
     7d2:	04 00       	.word	0x0004	; ????
     7d4:	03 00       	.word	0x0003	; ????
     7d6:	00 06       	cpc	r0, r16
     7d8:	06 03       	mulsu	r16, r22
     7da:	05 00       	.word	0x0005	; ????
     7dc:	00 00       	nop
     7de:	10 06       	cpc	r1, r16
     7e0:	06 06       	cpc	r0, r22
     7e2:	06 06       	cpc	r0, r22
     7e4:	06 06       	cpc	r0, r22
     7e6:	05 03       	mulsu	r16, r21
     7e8:	03 03       	mulsu	r16, r19
     7ea:	03 01       	movw	r0, r6
     7ec:	21 31       	cpi	r18, 0x11	; 17
     7ee:	11 21       	and	r17, r1
     7f0:	01 18       	sub	r0, r1
     7f2:	00 04       	cpc	r0, r0
     7f4:	00 04       	cpc	r0, r0
     7f6:	00 04       	cpc	r0, r0
     7f8:	04 00       	.word	0x0004	; ????
     7fa:	00 06       	cpc	r0, r16
     7fc:	00 06       	cpc	r0, r16
     7fe:	04 04       	cpc	r0, r4
     800:	03 1b       	sub	r16, r19
     802:	1b 13       	cpse	r17, r27
     804:	13 25       	eor	r17, r3
     806:	13 03       	mulsu	r17, r19
     808:	05 03       	mulsu	r16, r21
     80a:	00 03       	mulsu	r16, r16
     80c:	03 03       	mulsu	r16, r19
     80e:	04 03       	mulsu	r16, r20
     810:	00 00       	nop
     812:	03 00       	.word	0x0003	; ????
     814:	03 04       	cpc	r0, r3
     816:	00 00       	nop
     818:	03 03       	mulsu	r16, r19
     81a:	00 00       	nop
     81c:	00 14       	cp	r0, r0
     81e:	00 06       	cpc	r0, r16
     820:	00 00       	nop
     822:	00 06       	cpc	r0, r16
     824:	06 00       	.word	0x0006	; ????
     826:	06 06       	cpc	r0, r22
     828:	03 03       	mulsu	r16, r19
     82a:	23 13       	cpse	r18, r19
     82c:	20 14       	cp	r2, r0
     82e:	30 01       	movw	r6, r0
     830:	18 00       	.word	0x0018	; ????
     832:	00 04       	cpc	r0, r0
     834:	00 04       	cpc	r0, r0
     836:	00 04       	cpc	r0, r0
     838:	00 06       	cpc	r0, r16
     83a:	00 00       	nop
     83c:	00 00       	nop
     83e:	04 07       	cpc	r16, r20
     840:	03 03       	mulsu	r16, r19
     842:	1b 33       	cpi	r17, 0x3B	; 59
     844:	23 13       	cpse	r18, r19
     846:	33 13       	cpse	r19, r19
     848:	21 30       	cpi	r18, 0x01	; 1
     84a:	00 01       	movw	r0, r0
     84c:	03 03       	mulsu	r16, r19
     84e:	00 00       	nop
     850:	20 03       	mulsu	r18, r16
     852:	00 04       	cpc	r0, r0
     854:	00 04       	cpc	r0, r0
     856:	04 01       	movw	r0, r8
     858:	00 00       	nop
     85a:	03 03       	mulsu	r16, r19
     85c:	03 03       	mulsu	r16, r19
     85e:	00 00       	nop
     860:	00 03       	mulsu	r16, r16
     862:	03 01       	movw	r0, r6
     864:	00 04       	cpc	r0, r0
     866:	00 00       	nop
     868:	3a 3a       	cpi	r19, 0xAA	; 170
     86a:	3a 22       	and	r3, r26
     86c:	27 24       	eor	r2, r7
     86e:	24 14       	cp	r2, r4
     870:	00 27       	eor	r16, r16
     872:	17 07       	cpc	r17, r23
     874:	24 06       	cpc	r2, r20
     876:	34 05       	cpc	r19, r4
     878:	0d 2f       	mov	r16, r29
     87a:	1f 3e       	cpi	r17, 0xEF	; 239
     87c:	3e 3e       	cpi	r19, 0xEE	; 238
     87e:	06 2e       	mov	r0, r22
     880:	3f 3e       	cpi	r19, 0xEF	; 239
     882:	25 3e       	cpi	r18, 0xE5	; 229
     884:	26 27       	eor	r18, r22
     886:	3f 3f       	cpi	r19, 0xFF	; 255
     888:	17 25       	eor	r17, r7
     88a:	05 15       	cp	r16, r5
     88c:	3f 25       	eor	r19, r15
     88e:	27 27       	eor	r18, r23
     890:	27 3e       	cpi	r18, 0xE7	; 231
     892:	26 26       	eor	r2, r22
     894:	27 26       	eor	r2, r23
     896:	26 16       	cp	r2, r22
     898:	26 07       	cpc	r18, r22
     89a:	1f 27       	eor	r17, r31
     89c:	3f 27       	eor	r19, r31
     89e:	26 24       	eor	r2, r6
     8a0:	27 24       	eor	r2, r7
     8a2:	3f 17       	cp	r19, r31
     8a4:	22 27       	eor	r18, r18
     8a6:	27 22       	and	r2, r23
     8a8:	12 3b       	cpi	r17, 0xB2	; 178
     8aa:	3f 22       	and	r3, r31
     8ac:	27 3f       	cpi	r18, 0xF7	; 247
     8ae:	27 27       	eor	r18, r23
     8b0:	24 24       	eor	r2, r4
     8b2:	16 04       	cpc	r1, r6
     8b4:	26 07       	cpc	r18, r22
     8b6:	15 05       	cpc	r17, r5
     8b8:	0f 1d       	adc	r16, r15
     8ba:	3e 1f       	adc	r19, r30
     8bc:	3f 3f       	cpi	r19, 0xFF	; 255
     8be:	26 26       	eor	r2, r22
     8c0:	2f 3f       	cpi	r18, 0xFF	; 255
     8c2:	3e 27       	eor	r19, r30
     8c4:	3d 27       	eor	r19, r29
     8c6:	27 14       	cp	r2, r7
     8c8:	0e 25       	eor	r16, r14
     8ca:	14 0e       	add	r1, r20
     8cc:	16 3e       	cpi	r17, 0xE6	; 230
     8ce:	15 3d       	cpi	r17, 0xD5	; 213
     8d0:	3d 24       	eor	r3, r13
     8d2:	3e 26       	eor	r3, r30
     8d4:	26 26       	eor	r2, r22
     8d6:	16 17       	cp	r17, r22
     8d8:	17 07       	cpc	r17, r23
     8da:	26 3e       	cpi	r18, 0xE6	; 230
     8dc:	26 3e       	cpi	r18, 0xE6	; 230
     8de:	27 26       	eor	r2, r23
     8e0:	3c 3e       	cpi	r19, 0xEC	; 236
     8e2:	14 17       	cp	r17, r20
     8e4:	17 02       	muls	r17, r23
     8e6:	22 02       	muls	r18, r18
     8e8:	12 3a       	cpi	r17, 0xA2	; 162
     8ea:	3a 1f       	adc	r19, r26
     8ec:	3a 27       	eor	r19, r26
     8ee:	3c 3f       	cpi	r19, 0xFC	; 252
     8f0:	3f 3d       	cpi	r19, 0xDF	; 223
     8f2:	14 06       	cpc	r1, r20
     8f4:	24 27       	eor	r18, r20
     8f6:	0d 0f       	add	r16, r29
     8f8:	0d 0d       	add	r16, r13
     8fa:	3d 36       	cpi	r19, 0x6D	; 109
     8fc:	3f 3e       	cpi	r19, 0xEF	; 239
     8fe:	3f 3f       	cpi	r19, 0xFF	; 255
     900:	25 27       	eor	r18, r21
     902:	3d 3c       	cpi	r19, 0xCD	; 205
     904:	3d 3f       	cpi	r19, 0xFD	; 253
     906:	14 0f       	add	r17, r20
     908:	25 16       	cp	r2, r21
     90a:	0d 0d       	add	r16, r13
     90c:	15 15       	cp	r17, r5
     90e:	0e 15       	cp	r16, r14
     910:	3e 3d       	cpi	r19, 0xDE	; 222
     912:	3c 14       	cp	r3, r12
     914:	25 16       	cp	r2, r21
     916:	17 16       	cp	r1, r23
     918:	16 16       	cp	r1, r22
     91a:	3e 3f       	cpi	r19, 0xFE	; 254
     91c:	3e 3f       	cpi	r19, 0xFE	; 254
     91e:	3f 3f       	cpi	r19, 0xFF	; 255
     920:	3d 16       	cp	r3, r29
     922:	3e 14       	cp	r3, r14
     924:	14 17       	cp	r17, r20
     926:	03 3a       	cpi	r16, 0xA3	; 163
     928:	17 17       	cp	r17, r23
     92a:	3f 3f       	cpi	r19, 0xFF	; 255
     92c:	3f 3c       	cpi	r19, 0xCF	; 207
     92e:	3c 3c       	cpi	r19, 0xCC	; 204
     930:	3c 3c       	cpi	r19, 0xCC	; 204
     932:	3e 05       	cpc	r19, r14
     934:	27 25       	eor	r18, r7
     936:	0d 0d       	add	r16, r13
     938:	0e 15       	cp	r16, r14
     93a:	3d 3d       	cpi	r19, 0xDD	; 221
     93c:	3e 3f       	cpi	r19, 0xFE	; 254
     93e:	3e 3e       	cpi	r19, 0xEE	; 238
     940:	3e 21       	and	r19, r14
     942:	2e 3f       	cpi	r18, 0xFE	; 254
     944:	3e 15       	cp	r19, r14
     946:	17 0d       	add	r17, r7
     948:	17 15       	cp	r17, r7
     94a:	0f 17       	cp	r16, r31
     94c:	0d 13       	cpse	r16, r29
     94e:	15 0f       	add	r17, r21
     950:	15 3e       	cpi	r17, 0xE5	; 229
     952:	17 3d       	cpi	r17, 0xD7	; 215
     954:	14 3f       	cpi	r17, 0xF4	; 244
     956:	17 16       	cp	r1, r23
     958:	3e 17       	cp	r19, r30
     95a:	3f 3f       	cpi	r19, 0xFF	; 255
     95c:	3f 3e       	cpi	r19, 0xEF	; 239
     95e:	16 3e       	cpi	r17, 0xE6	; 230
     960:	3f 3e       	cpi	r19, 0xEF	; 239
     962:	3f 3e       	cpi	r19, 0xEF	; 239
     964:	3b 3c       	cpi	r19, 0xCB	; 203
     966:	3a 3a       	cpi	r19, 0xAA	; 170
     968:	12 12       	cpse	r1, r18
     96a:	3b 3a       	cpi	r19, 0xAB	; 171
     96c:	3f 3f       	cpi	r19, 0xFF	; 255
     96e:	3f 3f       	cpi	r19, 0xFF	; 255
     970:	3e 3e       	cpi	r19, 0xEE	; 238
     972:	3c 3f       	cpi	r19, 0xFC	; 252
     974:	06 27       	eor	r16, r22
     976:	15 3c       	cpi	r17, 0xC5	; 197
     978:	16 1e       	adc	r1, r22
     97a:	15 3d       	cpi	r17, 0xD5	; 213
     97c:	3e 3e       	cpi	r19, 0xEE	; 238
     97e:	3e 3e       	cpi	r19, 0xEE	; 238
     980:	39 16       	cp	r3, r25
     982:	21 2d       	mov	r18, r1
     984:	16 15       	cp	r17, r6
     986:	0d 15       	cp	r16, r13
     988:	15 0f       	add	r17, r21
     98a:	0d 15       	cp	r16, r13
     98c:	0b 15       	cp	r16, r11
     98e:	13 0d       	add	r17, r3
     990:	13 3d       	cpi	r17, 0xD3	; 211
     992:	3e 3e       	cpi	r19, 0xEE	; 238
     994:	3e 3e       	cpi	r19, 0xEE	; 238
     996:	16 3f       	cpi	r17, 0xF6	; 246
     998:	17 3e       	cpi	r17, 0xE7	; 231
     99a:	3e 3e       	cpi	r19, 0xEE	; 238
     99c:	1e 16       	cp	r1, r30
     99e:	3f 16       	cp	r3, r31
     9a0:	17 3d       	cpi	r17, 0xD7	; 215
     9a2:	3e 38       	cpi	r19, 0x8E	; 142
     9a4:	3c 3f       	cpi	r19, 0xFC	; 252
     9a6:	17 3a       	cpi	r17, 0xA7	; 167
     9a8:	12 17       	cp	r17, r18
     9aa:	10 17       	cp	r17, r16
     9ac:	38 10       	cpse	r3, r8
     9ae:	3c 3c       	cpi	r19, 0xCC	; 204
     9b0:	3c 3c       	cpi	r19, 0xCC	; 204
     9b2:	3e 3c       	cpi	r19, 0xCE	; 206
     9b4:	3f 3d       	cpi	r19, 0xDF	; 223
     9b6:	17 34       	cpi	r17, 0x47	; 71
     9b8:	3c 3e       	cpi	r19, 0xEC	; 236
     9ba:	15 35       	cpi	r17, 0x55	; 85
     9bc:	3e 17       	cp	r19, r30
     9be:	3f 17       	cp	r19, r31
     9c0:	17 17       	cp	r17, r23
     9c2:	16 26       	eor	r1, r22
     9c4:	27 17       	cp	r18, r23
     9c6:	17 0f       	add	r17, r23
     9c8:	16 0d       	add	r17, r6
     9ca:	0e 17       	cp	r16, r30
     9cc:	0d 0f       	add	r16, r29
     9ce:	15 13       	cpse	r17, r21
     9d0:	0d 13       	cpse	r16, r29
     9d2:	3d 1c       	adc	r3, r13
     9d4:	3c 15       	cp	r19, r12
     9d6:	3d 17       	cp	r19, r29
     9d8:	17 16       	cp	r1, r23
     9da:	3f 16       	cp	r3, r31
     9dc:	17 17       	cp	r17, r23
     9de:	16 16       	cp	r1, r22
     9e0:	3e 17       	cp	r19, r30
     9e2:	3c 16       	cp	r3, r28
     9e4:	3f 17       	cp	r19, r31
     9e6:	14 17       	cp	r17, r20
     9e8:	1f 12       	cpse	r1, r31
     9ea:	17 14       	cp	r1, r7
     9ec:	14 14       	cp	r1, r4
     9ee:	10 3c       	cpi	r17, 0xC0	; 192
     9f0:	16 3e       	cpi	r17, 0xE6	; 230
     9f2:	3c 17       	cp	r19, r28
     9f4:	3d 17       	cp	r19, r29
     9f6:	15 3c       	cpi	r17, 0xC5	; 197
     9f8:	16 14       	cp	r1, r6
     9fa:	34 3d       	cpi	r19, 0xD4	; 212
     9fc:	15 3f       	cpi	r17, 0xF5	; 245
     9fe:	17 11       	cpse	r17, r7
     a00:	16 17       	cp	r17, r22
     a02:	0f 0f       	add	r16, r31
     a04:	21 2e       	mov	r2, r17
     a06:	09 15       	cp	r16, r9
     a08:	3d 0c       	add	r3, r13
     a0a:	0e 15       	cp	r16, r14
     a0c:	15 0d       	add	r17, r5
     a0e:	0f 15       	cp	r16, r15
     a10:	0b 15       	cp	r16, r11
     a12:	16 3d       	cpi	r17, 0xD6	; 214
     a14:	16 16       	cp	r1, r22
     a16:	17 17       	cp	r17, r23
     a18:	17 17       	cp	r17, r23
     a1a:	17 16       	cp	r1, r23
     a1c:	17 3e       	cpi	r17, 0xE7	; 231
     a1e:	17 16       	cp	r1, r23
     a20:	17 15       	cp	r17, r7
     a22:	15 15       	cp	r17, r5
     a24:	10 14       	cp	r1, r0
     a26:	17 12       	cpse	r1, r23
     a28:	1f 17       	cp	r17, r31
     a2a:	1f 17       	cp	r17, r31
     a2c:	17 17       	cp	r17, r23
     a2e:	10 10       	cpse	r1, r0
     a30:	3c 14       	cp	r3, r12
     a32:	16 3c       	cpi	r17, 0xC6	; 198
     a34:	15 15       	cp	r17, r5
     a36:	05 00       	.word	0x0005	; ????
     a38:	14 14       	cp	r1, r4
     a3a:	05 05       	cpc	r16, r5
     a3c:	17 16       	cp	r1, r23
     a3e:	11 16       	cp	r1, r17
     a40:	11 16       	cp	r1, r17
     a42:	16 0e       	add	r1, r22
     a44:	16 09       	sbc	r17, r6
     a46:	0f 0e       	add	r0, r31
     a48:	14 0e       	add	r1, r20
     a4a:	17 0f       	add	r17, r23
     a4c:	14 15       	cp	r17, r4
     a4e:	0d 15       	cp	r16, r13
     a50:	13 0e       	add	r1, r19
     a52:	0d 17       	cp	r16, r29
     a54:	17 17       	cp	r17, r23
     a56:	16 16       	cp	r1, r22
     a58:	16 16       	cp	r1, r22
     a5a:	16 16       	cp	r1, r22
     a5c:	3e 17       	cp	r19, r30
     a5e:	3e 17       	cp	r19, r30
     a60:	17 17       	cp	r17, r23
     a62:	17 17       	cp	r17, r23
     a64:	17 16       	cp	r1, r23
     a66:	14 12       	cpse	r1, r20
     a68:	1b 1b       	sub	r17, r27
     a6a:	13 17       	cp	r17, r19
     a6c:	17 17       	cp	r17, r23
     a6e:	17 17       	cp	r17, r23
     a70:	14 16       	cp	r1, r20
     a72:	14 12       	cpse	r1, r20
     a74:	10 13       	cpse	r17, r16
     a76:	07 32       	cpi	r16, 0x27	; 39
     a78:	11 11       	cpse	r17, r1
     a7a:	02 30       	cpi	r16, 0x02	; 2
     a7c:	17 17       	cp	r17, r23
     a7e:	17 17       	cp	r17, r23
     a80:	1e 16       	cp	r1, r30
     a82:	17 17       	cp	r17, r23
     a84:	16 0e       	add	r1, r22
     a86:	0c 16       	cp	r0, r28
     a88:	16 0f       	add	r17, r22
     a8a:	0e 15       	cp	r16, r14
     a8c:	0d 17       	cp	r16, r29
     a8e:	0d 0b       	sbc	r16, r29
     a90:	15 0d       	add	r17, r5
     a92:	15 15       	cp	r17, r5
     a94:	15 16       	cp	r1, r21
     a96:	3e 3f       	cpi	r19, 0xFE	; 254
     a98:	3f 17       	cp	r19, r31
     a9a:	16 16       	cp	r1, r22
     a9c:	17 17       	cp	r17, r23
     a9e:	3f 16       	cp	r3, r31
     aa0:	17 16       	cp	r1, r23
     aa2:	17 1f       	adc	r17, r23
     aa4:	15 15       	cp	r17, r5
     aa6:	16 14       	cp	r1, r6
     aa8:	1b 19       	sub	r17, r11
     aaa:	19 11       	cpse	r17, r9
     aac:	19 11       	cpse	r17, r9
     aae:	11 11       	cpse	r17, r1
     ab0:	1c 14       	cp	r1, r12
     ab2:	13 13       	cpse	r17, r19
     ab4:	13 17       	cp	r17, r19
     ab6:	02 31       	cpi	r16, 0x12	; 18
     ab8:	34 37       	cpi	r19, 0x74	; 116
     aba:	00 12       	cpse	r0, r16
     abc:	34 36       	cpi	r19, 0x64	; 100
     abe:	1f 1d       	adc	r17, r15
     ac0:	1d 19       	sub	r17, r13
     ac2:	17 11       	cpse	r17, r7
     ac4:	1c 1e       	adc	r1, r28
     ac6:	16 17       	cp	r17, r22
     ac8:	19 0f       	add	r17, r25
     aca:	11 0d       	add	r17, r1
     acc:	0f 16       	cp	r0, r31
     ace:	10 0c       	add	r1, r0
     ad0:	14 14       	cp	r1, r4
     ad2:	0e 17       	cp	r16, r30
     ad4:	15 3d       	cpi	r17, 0xD5	; 213
     ad6:	15 16       	cp	r1, r21
     ad8:	16 3e       	cpi	r17, 0xE6	; 230
     ada:	16 17       	cp	r17, r22
     adc:	17 16       	cp	r1, r23
     ade:	17 17       	cp	r17, r23
     ae0:	16 17       	cp	r17, r22
     ae2:	16 17       	cp	r17, r22
     ae4:	1f 14       	cp	r1, r15
     ae6:	17 17       	cp	r17, r23
     ae8:	19 19       	sub	r17, r9
     aea:	19 19       	sub	r17, r9
     aec:	19 19       	sub	r17, r9
     aee:	11 19       	sub	r17, r1
     af0:	11 1a       	sub	r1, r17
     af2:	12 25       	eor	r17, r2
     af4:	03 22       	and	r0, r19
     af6:	21 21       	and	r18, r1
     af8:	04 32       	cpi	r16, 0x24	; 36
     afa:	26 21       	and	r18, r6
     afc:	07 27       	eor	r16, r23
     afe:	37 1f       	adc	r19, r23
     b00:	1f 1d       	adc	r17, r15
     b02:	19 1d       	adc	r17, r9
     b04:	1f 16       	cp	r1, r31
     b06:	1d 1f       	adc	r17, r29
     b08:	15 11       	cpse	r17, r5
     b0a:	0f 17       	cp	r16, r31
     b0c:	16 0c       	add	r1, r6
     b0e:	17 17       	cp	r17, r23
     b10:	0c 14       	cp	r0, r12
     b12:	1c 17       	cp	r17, r28
     b14:	1f 16       	cp	r1, r31
     b16:	16 16       	cp	r1, r22
     b18:	16 17       	cp	r17, r22
     b1a:	16 16       	cp	r1, r22
     b1c:	1e 1e       	adc	r1, r30
     b1e:	16 17       	cp	r17, r22
     b20:	14 16       	cp	r1, r20
     b22:	17 15       	cp	r17, r7
     b24:	05 04       	cpc	r0, r5
     b26:	1c 07       	cpc	r17, r28
     b28:	0a 1a       	sub	r0, r26
     b2a:	1a 1a       	sub	r1, r26
     b2c:	19 09       	sbc	r17, r9
     b2e:	19 09       	sbc	r17, r9
     b30:	1b 0b       	sbc	r17, r27
     b32:	22 3b       	cpi	r18, 0xB2	; 178
     b34:	0c 2b       	or	r16, r28
     b36:	3a 39       	cpi	r19, 0x9A	; 154
     b38:	22 20       	and	r2, r2
     b3a:	39 39       	cpi	r19, 0x99	; 153
     b3c:	27 20       	and	r2, r7
     b3e:	27 27       	eor	r18, r23
     b40:	36 1f       	adc	r19, r22
     b42:	1f 1e       	adc	r1, r31
     b44:	1f 1d       	adc	r17, r15
     b46:	15 1d       	adc	r17, r5
     b48:	1e 1e       	adc	r1, r30
     b4a:	17 1e       	adc	r1, r23
     b4c:	1c 14       	cp	r1, r12
     b4e:	1c 17       	cp	r17, r28
     b50:	1c 14       	cp	r1, r12
     b52:	1c 1e       	adc	r1, r28
     b54:	16 16       	cp	r1, r22
     b56:	17 1e       	adc	r1, r23
     b58:	16 16       	cp	r1, r22
     b5a:	1f 1f       	adc	r17, r31
     b5c:	16 1f       	adc	r17, r22
     b5e:	16 1e       	adc	r1, r22
     b60:	16 07       	cpc	r17, r22
     b62:	1e 17       	cp	r17, r30
     b64:	1f 1e       	adc	r1, r31
     b66:	04 1f       	adc	r16, r20
     b68:	0f 0a       	sbc	r0, r31
     b6a:	1a 1a       	sub	r1, r26
     b6c:	0a 0a       	sbc	r0, r26
     b6e:	09 0b       	sbc	r16, r25
     b70:	0b 0b       	sbc	r16, r27
     b72:	23 22       	and	r2, r19
     b74:	23 0a       	sbc	r2, r19
     b76:	39 09       	sbc	r19, r9
     b78:	3a 20       	and	r3, r10
     b7a:	09 22       	and	r0, r25
     b7c:	38 38       	cpi	r19, 0x88	; 136
     b7e:	3e 22       	and	r3, r30
     b80:	27 0a       	sbc	r2, r23
     b82:	0f 0d       	add	r16, r15
     b84:	0d 1d       	adc	r16, r13
     b86:	1f 1f       	adc	r17, r31
     b88:	1e 1f       	adc	r17, r30
     b8a:	1e 1f       	adc	r17, r30
     b8c:	1c 1c       	adc	r1, r12
     b8e:	13 1c       	adc	r1, r3
     b90:	1f 1c       	adc	r1, r15
     b92:	1c 1f       	adc	r17, r28
     b94:	1e 17       	cp	r17, r30
     b96:	1e 1f       	adc	r17, r30
     b98:	1f 1f       	adc	r17, r31
     b9a:	1f 16       	cp	r1, r31
     b9c:	1c 16       	cp	r1, r28
     b9e:	1f 16       	cp	r1, r31
     ba0:	16 1e       	adc	r1, r22
     ba2:	17 1f       	adc	r17, r23
     ba4:	1e 1d       	adc	r17, r14
     ba6:	1e 03       	fmul	r17, r22
     ba8:	0f 0f       	add	r16, r31
     baa:	0a 0a       	sbc	r0, r26
     bac:	0a 0a       	sbc	r0, r26
     bae:	0a 02       	muls	r16, r26
     bb0:	03 23       	and	r16, r19
     bb2:	23 3e       	cpi	r18, 0xE3	; 227
     bb4:	0c 08       	sbc	r0, r12
     bb6:	09 3e       	cpi	r16, 0xE9	; 233
     bb8:	08 39       	cpi	r16, 0x98	; 152
     bba:	3a 09       	sbc	r19, r10
     bbc:	08 3c       	cpi	r16, 0xC8	; 200
     bbe:	08 3a       	cpi	r16, 0xA8	; 168
     bc0:	22 3f       	cpi	r18, 0xF2	; 242
     bc2:	07 06       	cpc	r0, r23
     bc4:	0e 0f       	add	r16, r30
     bc6:	0e 1e       	adc	r0, r30
     bc8:	0f 0e       	add	r0, r31
     bca:	0f 1c       	adc	r0, r15
     bcc:	08 1c       	adc	r0, r8
     bce:	18 1f       	adc	r17, r24
     bd0:	1c 1f       	adc	r17, r28
     bd2:	18 1c       	adc	r1, r8
     bd4:	1f 1c       	adc	r1, r15
     bd6:	1c 1f       	adc	r17, r28
     bd8:	1f 1f       	adc	r17, r31
     bda:	1e 1c       	adc	r1, r14
     bdc:	1c 1c       	adc	r1, r12
     bde:	04 1f       	adc	r16, r20
     be0:	1f 1f       	adc	r17, r31
     be2:	1f 0d       	add	r17, r15
     be4:	1d 0d       	add	r17, r13
     be6:	1e 1f       	adc	r17, r30
     be8:	0f 0f       	add	r16, r31
     bea:	0c 0a       	sbc	r0, r28
     bec:	02 3a       	cpi	r16, 0xA2	; 162
     bee:	02 02       	muls	r16, r18
     bf0:	3a 23       	and	r19, r26
     bf2:	3a 08       	sbc	r3, r10
     bf4:	3c 08       	sbc	r3, r12
     bf6:	39 0e       	add	r3, r25
     bf8:	08 39       	cpi	r16, 0x98	; 152
     bfa:	09 0d       	add	r16, r9
     bfc:	0b 0d       	add	r16, r11
     bfe:	08 38       	cpi	r16, 0x88	; 136
     c00:	3c 24       	eor	r3, r12
     c02:	27 04       	cpc	r2, r7
     c04:	17 06       	cpc	r1, r23
     c06:	07 0f       	add	r16, r23
     c08:	0e 0f       	add	r16, r30
     c0a:	0c 0f       	add	r16, r28
     c0c:	1c 0f       	add	r17, r28
     c0e:	08 0f       	add	r16, r24
     c10:	0c 0c       	add	r0, r12
     c12:	0f 0c       	add	r0, r15
     c14:	1f 08       	sbc	r1, r15
     c16:	0c 1c       	adc	r0, r12
     c18:	1f 1f       	adc	r17, r31
     c1a:	0c 1c       	adc	r0, r12
     c1c:	1c 00       	.word	0x001c	; ????
     c1e:	1c 1f       	adc	r17, r28
     c20:	1c 0c       	add	r1, r12
     c22:	1c 1f       	adc	r17, r28
     c24:	0f 1c       	adc	r0, r15
     c26:	0d 0d       	add	r16, r13
     c28:	0f 0f       	add	r16, r31
     c2a:	07 04       	cpc	r0, r7
     c2c:	04 00       	.word	0x0004	; ????
     c2e:	3c 3a       	cpi	r19, 0xAC	; 172
     c30:	24 3c       	cpi	r18, 0xC4	; 196
     c32:	0a 38       	cpi	r16, 0x8A	; 138
     c34:	0c 08       	sbc	r0, r12
     c36:	0a 08       	sbc	r0, r10
     c38:	09 0d       	add	r16, r9
     c3a:	0b 3f       	cpi	r16, 0xFB	; 251
     c3c:	0f 0f       	add	r16, r31
     c3e:	08 0d       	add	r16, r8
     c40:	3f 3f       	cpi	r19, 0xFF	; 255
     c42:	2c 3f       	cpi	r18, 0xFC	; 252
     c44:	04 14       	cp	r0, r4
     c46:	3f 07       	cpc	r19, r31
     c48:	02 3c       	cpi	r16, 0xC2	; 194
     c4a:	0c 0a       	sbc	r0, r28
     c4c:	0f 0c       	add	r0, r15
     c4e:	0c 0c       	add	r0, r12
     c50:	04 0f       	add	r16, r20
     c52:	0c 08       	sbc	r0, r12
     c54:	0c 08       	sbc	r0, r12
     c56:	08 0a       	sbc	r0, r24
     c58:	0c 0c       	add	r0, r12
     c5a:	0f 1c       	adc	r0, r15
     c5c:	1f 1c       	adc	r1, r15
     c5e:	1c 1c       	adc	r1, r12
     c60:	0c 1c       	adc	r0, r12
     c62:	0f 0a       	sbc	r0, r31
     c64:	1c 08       	sbc	r1, r12
     c66:	0c 1c       	adc	r0, r12
     c68:	06 06       	cpc	r0, r22
     c6a:	06 3e       	cpi	r16, 0xE6	; 230
     c6c:	30 36       	cpi	r19, 0x60	; 96
     c6e:	36 34       	cpi	r19, 0x46	; 70
     c70:	12 32       	cpi	r17, 0x22	; 34
     c72:	08 38       	cpi	r16, 0x88	; 136
     c74:	1e 3f       	cpi	r17, 0xFE	; 254
     c76:	28 39       	cpi	r18, 0x98	; 152
     c78:	19 09       	sbc	r17, r9
     c7a:	21 2f       	mov	r18, r17
     c7c:	2f 2f       	mov	r18, r31
     c7e:	3f 3f       	cpi	r19, 0xFF	; 255
     c80:	15 04       	cpc	r1, r5
     c82:	3b 07       	cpc	r19, r27
     c84:	3f 3d       	cpi	r19, 0xDF	; 223
     c86:	01 01       	movw	r0, r2
     c88:	21 37       	cpi	r18, 0x71	; 113
     c8a:	17 23       	and	r17, r23
     c8c:	01 3f       	cpi	r16, 0xF1	; 241
     c8e:	35 31       	cpi	r19, 0x15	; 21
     c90:	31 07       	cpc	r19, r17
     c92:	37 37       	cpi	r19, 0x77	; 119
     c94:	30 27       	eor	r19, r16
     c96:	37 37       	cpi	r19, 0x77	; 119
     c98:	37 11       	cpse	r19, r7
     c9a:	21 39       	cpi	r18, 0x91	; 145
     c9c:	01 39       	cpi	r16, 0x91	; 145
     c9e:	37 26       	eor	r3, r23
     ca0:	30 3e       	cpi	r19, 0xE0	; 224
     ca2:	10 30       	cpi	r17, 0x00	; 0
     ca4:	36 32       	cpi	r19, 0x26	; 38
     ca6:	30 36       	cpi	r19, 0x60	; 96
     ca8:	36 04       	cpc	r3, r6
     caa:	00 36       	cpi	r16, 0x60	; 96
     cac:	38 00       	.word	0x0038	; ????
     cae:	38 30       	cpi	r19, 0x08	; 8
     cb0:	36 3e       	cpi	r19, 0xE6	; 230
     cb2:	0f 3e       	cpi	r16, 0xEF	; 239
     cb4:	1f 3d       	cpi	r17, 0xDF	; 223
     cb6:	09 39       	cpi	r16, 0x99	; 153
     cb8:	19 21       	and	r17, r9
     cba:	2c 21       	and	r18, r12
     cbc:	05 01       	movw	r0, r10
     cbe:	1f 37       	cpi	r17, 0x7F	; 127
     cc0:	39 01       	movw	r6, r18
     cc2:	07 39       	cpi	r16, 0x97	; 151
     cc4:	07 3d       	cpi	r16, 0xD7	; 215
     cc6:	39 26       	eor	r3, r25
     cc8:	1f 35       	cpi	r17, 0x5F	; 95
     cca:	26 18       	sub	r2, r6
     ccc:	27 04       	cpc	r2, r7
     cce:	27 07       	cpc	r18, r23
     cd0:	07 3e       	cpi	r16, 0xE7	; 231
     cd2:	03 37       	cpi	r16, 0x73	; 115
     cd4:	37 30       	cpi	r19, 0x07	; 7
     cd6:	37 31       	cpi	r19, 0x17	; 23
     cd8:	31 11       	cpse	r19, r1
     cda:	33 07       	cpc	r19, r19
     cdc:	38 10       	cpse	r3, r8
     cde:	31 37       	cpi	r19, 0x71	; 113
     ce0:	04 07       	cpc	r16, r20
     ce2:	36 30       	cpi	r19, 0x06	; 6
     ce4:	32 16       	cp	r3, r18
     ce6:	26 16       	cp	r2, r22
     ce8:	36 06       	cpc	r3, r22
     cea:	06 20       	and	r0, r6
     cec:	16 38       	cpi	r17, 0x86	; 134
     cee:	06 10       	cpse	r0, r6
     cf0:	00 07       	cpc	r16, r16
     cf2:	09 3f       	cpi	r16, 0xF9	; 249
     cf4:	18 19       	sub	r17, r8
     cf6:	19 19       	sub	r17, r9
     cf8:	1d 19       	sub	r17, r13
     cfa:	11 2c       	mov	r1, r1
     cfc:	11 07       	cpc	r17, r17
     cfe:	01 01       	movw	r0, r2
     d00:	27 31       	cpi	r18, 0x17	; 23
     d02:	07 06       	cpc	r0, r23
     d04:	01 05       	cpc	r16, r1
     d06:	26 19       	sub	r18, r6
     d08:	39 27       	eor	r19, r25
     d0a:	19 19       	sub	r17, r9
     d0c:	21 21       	and	r18, r1
     d0e:	1c 21       	and	r17, r12
     d10:	07 01       	movw	r0, r14
     d12:	16 36       	cpi	r17, 0x66	; 102
     d14:	27 37       	cpi	r18, 0x77	; 119
     d16:	31 37       	cpi	r19, 0x71	; 113
     d18:	37 37       	cpi	r19, 0x77	; 119
     d1a:	07 15       	cp	r16, r7
     d1c:	07 01       	movw	r0, r14
     d1e:	01 01       	movw	r0, r2
     d20:	01 37       	cpi	r16, 0x71	; 113
     d22:	07 36       	cpi	r16, 0x67	; 103
     d24:	34 30       	cpi	r19, 0x04	; 4
     d26:	14 06       	cpc	r1, r20
     d28:	30 30       	cpi	r19, 0x00	; 0
     d2a:	00 00       	nop
     d2c:	00 06       	cpc	r0, r16
     d2e:	16 06       	cpc	r1, r22
     d30:	04 01       	movw	r0, r8
     d32:	07 39       	cpi	r16, 0x97	; 151
     d34:	19 19       	sub	r17, r9
     d36:	19 19       	sub	r17, r9
     d38:	1f 37       	cpi	r17, 0x7F	; 127
     d3a:	01 29       	or	r16, r1
     d3c:	07 05       	cpc	r16, r7
     d3e:	07 17       	cp	r16, r23
     d40:	03 33       	cpi	r16, 0x33	; 51
     d42:	3f 01       	movw	r6, r30
     d44:	00 31       	cpi	r16, 0x10	; 16
     d46:	25 19       	sub	r18, r5
     d48:	21 21       	and	r18, r1
     d4a:	1d 25       	eor	r17, r13
     d4c:	19 24       	eor	r1, r9
     d4e:	21 19       	sub	r18, r1
     d50:	21 07       	cpc	r18, r17
     d52:	31 07       	cpc	r19, r17
     d54:	36 00       	.word	0x0036	; ????
     d56:	31 37       	cpi	r19, 0x71	; 113
     d58:	07 31       	cpi	r16, 0x17	; 23
     d5a:	01 05       	cpc	r16, r1
     d5c:	01 07       	cpc	r16, r17
     d5e:	33 00       	.word	0x0033	; ????
     d60:	01 07       	cpc	r16, r17
     d62:	02 07       	cpc	r16, r18
     d64:	04 06       	cpc	r0, r20
     d66:	06 16       	cp	r0, r22
     d68:	36 36       	cpi	r19, 0x66	; 102
     d6a:	04 06       	cpc	r0, r20
     d6c:	00 00       	nop
     d6e:	00 00       	nop
     d70:	07 07       	cpc	r16, r23
     d72:	00 01       	movw	r0, r0
     d74:	38 19       	sub	r19, r8
     d76:	09 0f       	add	r16, r25
     d78:	37 37       	cpi	r19, 0x77	; 119
     d7a:	0f 09       	sbc	r16, r15
     d7c:	00 03       	mulsu	r16, r16
     d7e:	07 07       	cpc	r16, r23
     d80:	03 37       	cpi	r16, 0x73	; 115
     d82:	33 39       	cpi	r19, 0x93	; 147
     d84:	27 27       	eor	r18, r23
     d86:	19 37       	cpi	r17, 0x79	; 121
     d88:	31 19       	sub	r19, r1
     d8a:	19 21       	and	r17, r9
     d8c:	1c 21       	and	r17, r12
     d8e:	24 19       	sub	r18, r4
     d90:	24 11       	cpse	r18, r4
     d92:	07 07       	cpc	r16, r23
     d94:	07 07       	cpc	r16, r23
     d96:	37 11       	cpse	r19, r7
     d98:	30 17       	cp	r19, r16
     d9a:	07 07       	cpc	r16, r23
     d9c:	27 37       	cpi	r18, 0x77	; 119
     d9e:	01 37       	cpi	r16, 0x71	; 113
     da0:	35 01       	movw	r6, r10
     da2:	17 02       	muls	r17, r23
     da4:	06 10       	cpse	r0, r6
     da6:	32 16       	cp	r3, r18
     da8:	36 30       	cpi	r19, 0x06	; 6
     daa:	32 30       	cpi	r19, 0x02	; 2
     dac:	02 32       	cpi	r16, 0x22	; 34
     dae:	04 16       	cp	r0, r20
     db0:	16 02       	muls	r17, r22
     db2:	07 01       	movw	r0, r14
     db4:	01 11       	cpse	r16, r1
     db6:	09 3f       	cpi	r16, 0xF9	; 249
     db8:	05 07       	cpc	r16, r21
     dba:	0f 39       	cpi	r16, 0x9F	; 159
     dbc:	07 31       	cpi	r16, 0x17	; 23
     dbe:	05 30       	cpi	r16, 0x05	; 5
     dc0:	31 35       	cpi	r19, 0x51	; 81
     dc2:	37 27       	eor	r19, r23
     dc4:	31 31       	cpi	r19, 0x11	; 17
     dc6:	21 19       	sub	r18, r1
     dc8:	37 1d       	adc	r19, r7
     dca:	1f 31       	cpi	r17, 0x1F	; 31
     dcc:	19 1d       	adc	r17, r9
     dce:	25 24       	eor	r2, r5
     dd0:	19 24       	eor	r1, r9
     dd2:	01 26       	eor	r0, r17
     dd4:	06 37       	cpi	r16, 0x76	; 118
     dd6:	07 31       	cpi	r16, 0x17	; 23
     dd8:	31 34       	cpi	r19, 0x41	; 65
     dda:	01 37       	cpi	r16, 0x71	; 113
     ddc:	31 30       	cpi	r19, 0x01	; 1
     dde:	37 37       	cpi	r19, 0x77	; 119
     de0:	04 31       	cpi	r16, 0x14	; 20
     de2:	06 37       	cpi	r16, 0x76	; 118
     de4:	00 32       	cpi	r16, 0x20	; 32
     de6:	36 30       	cpi	r19, 0x06	; 6
     de8:	00 36       	cpi	r16, 0x60	; 96
     dea:	30 36       	cpi	r19, 0x60	; 96
     dec:	36 36       	cpi	r19, 0x66	; 102
     dee:	32 06       	cpc	r3, r18
     df0:	37 07       	cpc	r19, r23
     df2:	05 31       	cpi	r16, 0x15	; 21
     df4:	05 31       	cpi	r16, 0x15	; 21
     df6:	0d 0f       	add	r16, r29
     df8:	37 37       	cpi	r19, 0x77	; 119
     dfa:	29 09       	sbc	r18, r9
     dfc:	31 05       	cpc	r19, r1
     dfe:	31 33       	cpi	r19, 0x31	; 49
     e00:	37 31       	cpi	r19, 0x17	; 23
     e02:	19 18       	sub	r1, r9
     e04:	23 3f       	cpi	r18, 0xF3	; 243
     e06:	1b 27       	eor	r17, r27
     e08:	07 1e       	adc	r0, r23
     e0a:	1f 27       	eor	r17, r31
     e0c:	27 1f       	adc	r18, r23
     e0e:	19 31       	cpi	r17, 0x19	; 25
     e10:	1c 21       	and	r17, r12
     e12:	37 07       	cpc	r19, r23
     e14:	37 37       	cpi	r19, 0x77	; 119
     e16:	31 31       	cpi	r19, 0x11	; 17
     e18:	31 31       	cpi	r19, 0x11	; 17
     e1a:	31 37       	cpi	r19, 0x71	; 113
     e1c:	31 17       	cp	r19, r17
     e1e:	35 37       	cpi	r19, 0x75	; 117
     e20:	31 31       	cpi	r19, 0x11	; 17
     e22:	31 31       	cpi	r19, 0x11	; 17
     e24:	32 36       	cpi	r19, 0x62	; 98
     e26:	30 36       	cpi	r19, 0x60	; 96
     e28:	00 30       	cpi	r16, 0x00	; 0
     e2a:	00 30       	cpi	r16, 0x00	; 0
     e2c:	32 30       	cpi	r19, 0x02	; 2
     e2e:	32 32       	cpi	r19, 0x22	; 34
     e30:	16 30       	cpi	r17, 0x06	; 6
     e32:	37 11       	cpse	r19, r7
     e34:	31 31       	cpi	r19, 0x11	; 17
     e36:	39 3f       	cpi	r19, 0xF9	; 249
     e38:	37 31       	cpi	r19, 0x17	; 23
     e3a:	39 39       	cpi	r19, 0x99	; 153
     e3c:	31 37       	cpi	r19, 0x71	; 113
     e3e:	33 37       	cpi	r19, 0x73	; 115
     e40:	33 37       	cpi	r19, 0x73	; 115
     e42:	37 1f       	adc	r19, r23
     e44:	37 1b       	sub	r19, r23
     e46:	19 1f       	adc	r17, r25
     e48:	36 1f       	adc	r19, r22
     e4a:	21 1d       	adc	r18, r1
     e4c:	26 37       	cpi	r18, 0x76	; 118
     e4e:	1f 21       	and	r17, r15
     e50:	34 1f       	adc	r19, r20
     e52:	1f 31       	cpi	r17, 0x1F	; 31
     e54:	31 35       	cpi	r19, 0x51	; 81
     e56:	37 37       	cpi	r19, 0x77	; 119
     e58:	37 37       	cpi	r19, 0x77	; 119
     e5a:	37 37       	cpi	r19, 0x77	; 119
     e5c:	07 31       	cpi	r16, 0x17	; 23
     e5e:	07 31       	cpi	r16, 0x17	; 23
     e60:	31 31       	cpi	r19, 0x11	; 17
     e62:	35 35       	cpi	r19, 0x55	; 85
     e64:	30 37       	cpi	r19, 0x70	; 112
     e66:	36 36       	cpi	r19, 0x66	; 102
     e68:	00 00       	nop
     e6a:	30 32       	cpi	r19, 0x20	; 32
     e6c:	30 30       	cpi	r19, 0x00	; 0
     e6e:	30 30       	cpi	r19, 0x00	; 0
     e70:	31 37       	cpi	r19, 0x71	; 113
     e72:	31 36       	cpi	r19, 0x61	; 97
     e74:	32 34       	cpi	r19, 0x42	; 66
     e76:	38 2e       	mov	r3, r24
     e78:	33 33       	cpi	r19, 0x33	; 51
     e7a:	39 2f       	mov	r19, r25
     e7c:	31 31       	cpi	r19, 0x11	; 17
     e7e:	31 31       	cpi	r19, 0x11	; 17
     e80:	07 37       	cpi	r16, 0x77	; 119
     e82:	31 31       	cpi	r19, 0x11	; 17
     e84:	37 1f       	adc	r19, r23
     e86:	1d 37       	cpi	r17, 0x7D	; 125
     e88:	37 19       	sub	r19, r7
     e8a:	1f 37       	cpi	r17, 0x7F	; 127
     e8c:	1f 31       	cpi	r17, 0x1F	; 31
     e8e:	19 1c       	adc	r1, r9
     e90:	31 19       	sub	r19, r1
     e92:	37 37       	cpi	r19, 0x77	; 119
     e94:	37 37       	cpi	r19, 0x77	; 119
     e96:	07 01       	movw	r0, r14
     e98:	01 35       	cpi	r16, 0x51	; 81
     e9a:	37 37       	cpi	r19, 0x77	; 119
     e9c:	35 31       	cpi	r19, 0x15	; 21
     e9e:	05 37       	cpi	r16, 0x75	; 117
     ea0:	31 37       	cpi	r19, 0x71	; 113
     ea2:	31 01       	movw	r6, r2
     ea4:	31 31       	cpi	r19, 0x11	; 17
     ea6:	37 36       	cpi	r19, 0x67	; 103
     ea8:	00 03       	mulsu	r16, r16
     eaa:	03 33       	cpi	r16, 0x33	; 51
     eac:	03 33       	cpi	r16, 0x33	; 51
     eae:	33 33       	cpi	r19, 0x33	; 51
     eb0:	01 31       	cpi	r16, 0x11	; 17
     eb2:	34 34       	cpi	r19, 0x44	; 68
     eb4:	34 30       	cpi	r19, 0x04	; 4
     eb6:	3e 2b       	or	r19, r30
     eb8:	3f 3d       	cpi	r19, 0xDF	; 223
     eba:	3f 0e       	add	r3, r31
     ebc:	3e 38       	cpi	r19, 0x8E	; 142
     ebe:	01 01       	movw	r0, r2
     ec0:	05 03       	mulsu	r16, r21
     ec2:	35 33       	cpi	r19, 0x35	; 53
     ec4:	06 07       	cpc	r16, r22
     ec6:	37 31       	cpi	r19, 0x17	; 23
     ec8:	03 19       	sub	r16, r3
     eca:	33 1f       	adc	r19, r19
     ecc:	19 37       	cpi	r17, 0x79	; 121
     ece:	30 19       	sub	r19, r0
     ed0:	37 32       	cpi	r19, 0x27	; 39
     ed2:	1f 31       	cpi	r17, 0x1F	; 31
     ed4:	37 07       	cpc	r19, r23
     ed6:	37 30       	cpi	r19, 0x07	; 7
     ed8:	37 07       	cpc	r19, r23
     eda:	37 31       	cpi	r19, 0x17	; 23
     edc:	31 37       	cpi	r19, 0x71	; 113
     ede:	31 30       	cpi	r19, 0x01	; 1
     ee0:	37 31       	cpi	r19, 0x17	; 23
     ee2:	37 31       	cpi	r19, 0x17	; 23
     ee4:	01 34       	cpi	r16, 0x41	; 65
     ee6:	30 30       	cpi	r19, 0x00	; 0
     ee8:	03 03       	mulsu	r16, r19
     eea:	03 03       	mulsu	r16, r19
     eec:	03 03       	mulsu	r16, r19
     eee:	33 03       	mulsu	r19, r19
     ef0:	33 06       	cpc	r3, r19
     ef2:	36 39       	cpi	r19, 0x96	; 150
     ef4:	24 0e       	add	r2, r20
     ef6:	1b 1b       	sub	r17, r27
     ef8:	3b 39       	cpi	r19, 0x9B	; 155
     efa:	18 1b       	sub	r17, r24
     efc:	3a 01       	movw	r6, r20
     efe:	39 05       	cpc	r19, r9
     f00:	01 01       	movw	r0, r2
     f02:	03 01       	movw	r0, r6
     f04:	01 34       	cpi	r16, 0x41	; 65
     f06:	07 05       	cpc	r16, r7
     f08:	31 33       	cpi	r19, 0x31	; 49
     f0a:	19 31       	cpi	r17, 0x19	; 25
     f0c:	37 18       	sub	r3, r7
     f0e:	30 32       	cpi	r19, 0x20	; 32
     f10:	19 37       	cpi	r17, 0x79	; 121
     f12:	01 35       	cpi	r16, 0x51	; 81
     f14:	01 37       	cpi	r16, 0x71	; 113
     f16:	37 37       	cpi	r19, 0x77	; 119
     f18:	37 31       	cpi	r19, 0x17	; 23
     f1a:	37 37       	cpi	r19, 0x77	; 119
     f1c:	00 07       	cpc	r16, r16
     f1e:	37 31       	cpi	r19, 0x17	; 23
     f20:	35 37       	cpi	r19, 0x75	; 117
     f22:	31 31       	cpi	r19, 0x11	; 17
     f24:	19 1e       	adc	r1, r25
     f26:	06 1a       	sub	r0, r22
     f28:	1e 06       	cpc	r1, r30
     f2a:	06 06       	cpc	r0, r22
     f2c:	03 1b       	sub	r16, r19
     f2e:	03 1b       	sub	r16, r19
     f30:	00 18       	sub	r0, r0
     f32:	3e 1c       	adc	r3, r14
     f34:	30 34       	cpi	r19, 0x40	; 64
     f36:	1e 1b       	sub	r17, r30
     f38:	39 3f       	cpi	r19, 0xF9	; 249
     f3a:	1b 1b       	sub	r17, r27
     f3c:	38 3f       	cpi	r19, 0xF8	; 248
     f3e:	39 01       	movw	r6, r18
     f40:	3d 01       	movw	r6, r26
     f42:	01 04       	cpc	r0, r1
     f44:	05 01       	movw	r0, r10
     f46:	31 05       	cpc	r19, r1
     f48:	00 07       	cpc	r16, r16
     f4a:	31 07       	cpc	r19, r17
     f4c:	01 36       	cpi	r16, 0x61	; 97
     f4e:	07 30       	cpi	r16, 0x07	; 7
     f50:	07 34       	cpi	r16, 0x47	; 71
     f52:	07 07       	cpc	r16, r23
     f54:	30 37       	cpi	r19, 0x70	; 112
     f56:	35 07       	cpc	r19, r21
     f58:	37 37       	cpi	r19, 0x77	; 119
     f5a:	05 01       	movw	r0, r10
     f5c:	37 01       	movw	r6, r14
     f5e:	37 07       	cpc	r19, r23
     f60:	37 19       	sub	r19, r7
     f62:	07 0d       	add	r16, r7
     f64:	01 07       	cpc	r16, r17
     f66:	1c 00       	.word	0x001c	; ????
     f68:	18 1e       	adc	r1, r24
     f6a:	06 06       	cpc	r0, r22
     f6c:	1e 1e       	adc	r1, r30
     f6e:	1b 18       	sub	r1, r11
     f70:	18 18       	sub	r1, r8
     f72:	38 3e       	cpi	r19, 0xE8	; 232
     f74:	38 36       	cpi	r19, 0x68	; 104
     f76:	1b 33       	cpi	r17, 0x3B	; 59
     f78:	19 3f       	cpi	r17, 0xF9	; 249
     f7a:	33 3e       	cpi	r19, 0xE3	; 227
     f7c:	1f 1f       	adc	r17, r31
     f7e:	1d 39       	cpi	r17, 0x9D	; 157
     f80:	39 19       	sub	r19, r9
     f82:	19 19       	sub	r17, r9
     f84:	19 01       	movw	r2, r18
     f86:	01 01       	movw	r0, r2
     f88:	07 00       	.word	0x0007	; ????
     f8a:	07 00       	.word	0x0007	; ????
     f8c:	07 02       	muls	r16, r23
     f8e:	34 07       	cpc	r19, r20
     f90:	00 06       	cpc	r0, r16
     f92:	06 00       	.word	0x0006	; ????
     f94:	07 31       	cpi	r16, 0x17	; 23
     f96:	07 01       	movw	r0, r14
     f98:	05 01       	movw	r0, r10
     f9a:	01 37       	cpi	r16, 0x71	; 113
     f9c:	06 37       	cpi	r16, 0x76	; 118
     f9e:	01 37       	cpi	r16, 0x71	; 113
     fa0:	0f 07       	cpc	r16, r31
     fa2:	0d 01       	movw	r0, r26
     fa4:	04 01       	movw	r0, r8
     fa6:	07 1c       	adc	r0, r7
     fa8:	18 18       	sub	r1, r8
     faa:	1e 1e       	adc	r1, r30
     fac:	1e 1e       	adc	r1, r30
     fae:	1e 1e       	adc	r1, r30
     fb0:	18 38       	cpi	r17, 0x88	; 136
     fb2:	38 1d       	adc	r19, r8
     fb4:	33 37       	cpi	r19, 0x73	; 115
     fb6:	33 1d       	adc	r19, r3
     fb8:	37 1b       	sub	r19, r23
     fba:	1e 33       	cpi	r17, 0x3E	; 62
     fbc:	37 1b       	sub	r19, r23
     fbe:	37 19       	sub	r19, r7
     fc0:	39 19       	sub	r19, r9
     fc2:	19 18       	sub	r1, r9
     fc4:	1f 19       	sub	r17, r15
     fc6:	1f 07       	cpc	r17, r31
     fc8:	18 1f       	adc	r17, r24
     fca:	1a 07       	cpc	r17, r26
     fcc:	1d 07       	cpc	r17, r29
     fce:	02 00       	.word	0x0002	; ????
     fd0:	07 00       	.word	0x0007	; ????
     fd2:	02 06       	cpc	r0, r18
     fd4:	00 06       	cpc	r0, r16
     fd6:	06 05       	cpc	r16, r6
     fd8:	01 02       	muls	r16, r17
     fda:	07 04       	cpc	r0, r7
     fdc:	04 06       	cpc	r0, r20
     fde:	1e 01       	movw	r2, r28
     fe0:	01 01       	movw	r0, r2
     fe2:	05 19       	sub	r16, r5
     fe4:	01 1d       	adc	r16, r1
     fe6:	07 00       	.word	0x0007	; ????
     fe8:	1a 18       	sub	r1, r10
     fea:	1f 1e       	adc	r1, r31
     fec:	1e 0e       	add	r1, r30
     fee:	1e 1e       	adc	r1, r30
     ff0:	1e 38       	cpi	r17, 0x8E	; 142
     ff2:	19 37       	cpi	r17, 0x79	; 121
     ff4:	1b 37       	cpi	r17, 0x7B	; 123
     ff6:	1b 35       	cpi	r17, 0x5B	; 91
     ff8:	37 1b       	sub	r19, r23
     ffa:	33 31       	cpi	r19, 0x13	; 19
     ffc:	34 31       	cpi	r19, 0x14	; 20
     ffe:	37 1f       	adc	r19, r23
    1000:	1f 3f       	cpi	r17, 0xFF	; 255
    1002:	38 1f       	adc	r19, r24
    1004:	08 1f       	adc	r16, r24
    1006:	18 1a       	sub	r1, r24
    1008:	1f 18       	sub	r1, r15
    100a:	1e 18       	sub	r1, r14
    100c:	07 18       	sub	r0, r7
    100e:	1a 18       	sub	r1, r10
    1010:	1e 1e       	adc	r1, r30
    1012:	18 1e       	adc	r1, r24
    1014:	00 1a       	sub	r0, r16
    1016:	1e 06       	cpc	r1, r30
    1018:	00 00       	nop
    101a:	1e 06       	cpc	r1, r30
    101c:	06 1a       	sub	r0, r22
    101e:	06 05       	cpc	r16, r6
    1020:	06 1e       	adc	r0, r22
    1022:	06 01       	movw	r0, r12
    1024:	19 06       	cpc	r1, r25
    1026:	19 19       	sub	r17, r9
    1028:	18 18       	sub	r1, r8
    102a:	18 1f       	adc	r17, r24
    102c:	1c 1a       	sub	r1, r28
    102e:	06 1e       	adc	r0, r22
    1030:	3e 1e       	adc	r3, r30
    1032:	31 1f       	adc	r19, r17
    1034:	33 37       	cpi	r19, 0x73	; 115
    1036:	31 37       	cpi	r19, 0x71	; 113
    1038:	33 31       	cpi	r19, 0x13	; 19
    103a:	34 1d       	adc	r19, r4
    103c:	35 35       	cpi	r19, 0x55	; 85
    103e:	37 37       	cpi	r19, 0x77	; 119
    1040:	18 18       	sub	r1, r8
    1042:	37 00       	.word	0x0037	; ????
    1044:	1f 0f       	add	r17, r31
    1046:	0a 18       	sub	r0, r10
    1048:	1c 06       	cpc	r1, r28
    104a:	1e 1c       	adc	r1, r14
    104c:	1a 1f       	adc	r17, r26
    104e:	1e 1e       	adc	r1, r30
    1050:	1e 1a       	sub	r1, r30
    1052:	1c 1a       	sub	r1, r28
    1054:	1e 1a       	sub	r1, r30
    1056:	1a 1e       	adc	r1, r26
    1058:	1e 1e       	adc	r1, r30
    105a:	18 07       	cpc	r17, r24
    105c:	00 07       	cpc	r16, r16
    105e:	06 06       	cpc	r0, r22
    1060:	1c 07       	cpc	r17, r28
    1062:	18 1e       	adc	r1, r24
    1064:	04 1a       	sub	r0, r20
    1066:	1e 06       	cpc	r1, r30

00001068 <port_to_output_PGM>:
    1068:	00 00 00 00 25 00 28 00 2b 00                       ....%.(.+.

00001072 <port_to_mode_PGM>:
    1072:	00 00 00 00 24 00 27 00 2a 00                       ....$.'.*.

0000107c <digital_pin_to_port_PGM>:
    107c:	04 04 04 04 04 04 04 04 02 02 02 02 02 02 03 03     ................
    108c:	03 03 03 03                                         ....

00001090 <digital_pin_to_bit_mask_PGM>:
    1090:	01 02 04 08 10 20 40 80 01 02 04 08 10 20 01 02     ..... @...... ..
    10a0:	04 08 10 20                                         ... 

000010a4 <__ctors_start>:
    10a4:	55 2a       	or	r5, r21

000010a6 <__ctors_end>:
    10a6:	11 24       	eor	r1, r1
    10a8:	1f be       	out	0x3f, r1	; 63
    10aa:	cf ef       	ldi	r28, 0xFF	; 255
    10ac:	d8 e0       	ldi	r29, 0x08	; 8
    10ae:	de bf       	out	0x3e, r29	; 62
    10b0:	cd bf       	out	0x3d, r28	; 61

000010b2 <__do_clear_bss>:
    10b2:	21 e0       	ldi	r18, 0x01	; 1
    10b4:	a0 e0       	ldi	r26, 0x00	; 0
    10b6:	b1 e0       	ldi	r27, 0x01	; 1
    10b8:	01 c0       	rjmp	.+2      	; 0x10bc <.do_clear_bss_start>

000010ba <.do_clear_bss_loop>:
    10ba:	1d 92       	st	X+, r1

000010bc <.do_clear_bss_start>:
    10bc:	a1 31       	cpi	r26, 0x11	; 17
    10be:	b2 07       	cpc	r27, r18
    10c0:	e1 f7       	brne	.-8      	; 0x10ba <.do_clear_bss_loop>

000010c2 <__do_global_ctors>:
    10c2:	18 e0       	ldi	r17, 0x08	; 8
    10c4:	c3 e5       	ldi	r28, 0x53	; 83
    10c6:	d8 e0       	ldi	r29, 0x08	; 8
    10c8:	04 c0       	rjmp	.+8      	; 0x10d2 <__do_global_ctors+0x10>
    10ca:	21 97       	sbiw	r28, 0x01	; 1
    10cc:	fe 01       	movw	r30, r28
    10ce:	0e 94 84 2a 	call	0x5508	; 0x5508 <__tablejump2__>
    10d2:	c2 35       	cpi	r28, 0x52	; 82
    10d4:	d1 07       	cpc	r29, r17
    10d6:	c9 f7       	brne	.-14     	; 0x10ca <__do_global_ctors+0x8>
    10d8:	0e 94 db 08 	call	0x11b6	; 0x11b6 <main>
    10dc:	0c 94 8a 2a 	jmp	0x5514	; 0x5514 <_exit>

000010e0 <__bad_interrupt>:
    10e0:	0c 94 00 00 	jmp	0	; 0x0 <__vectors>

000010e4 <pinMode.constprop.2>:
#include "wiring_private.h"
#include "pins_arduino.h"

void pinMode(uint8_t pin, uint8_t mode)
{
	uint8_t bit = digitalPinToBitMask(pin);
    10e4:	90 e0       	ldi	r25, 0x00	; 0
    10e6:	fc 01       	movw	r30, r24
    10e8:	e0 57       	subi	r30, 0x70	; 112
    10ea:	ff 4e       	sbci	r31, 0xEF	; 239
    10ec:	24 91       	lpm	r18, Z
	uint8_t port = digitalPinToPort(pin);
    10ee:	84 58       	subi	r24, 0x84	; 132
    10f0:	9f 4e       	sbci	r25, 0xEF	; 239
    10f2:	fc 01       	movw	r30, r24
    10f4:	84 91       	lpm	r24, Z
	volatile uint8_t *reg, *out;

	if (port == NOT_A_PIN) return;
    10f6:	88 23       	and	r24, r24
    10f8:	99 f0       	breq	.+38     	; 0x1120 <pinMode.constprop.2+0x3c>

	// JWS: can I let the optimizer do this?
	reg = portModeRegister(port);
    10fa:	90 e0       	ldi	r25, 0x00	; 0
    10fc:	88 0f       	add	r24, r24
    10fe:	99 1f       	adc	r25, r25
    1100:	fc 01       	movw	r30, r24
    1102:	ee 58       	subi	r30, 0x8E	; 142
    1104:	ff 4e       	sbci	r31, 0xEF	; 239
    1106:	a5 91       	lpm	r26, Z+
    1108:	b4 91       	lpm	r27, Z
	out = portOutputRegister(port);
    110a:	fc 01       	movw	r30, r24
    110c:	e8 59       	subi	r30, 0x98	; 152
    110e:	ff 4e       	sbci	r31, 0xEF	; 239
    1110:	85 91       	lpm	r24, Z+
    1112:	94 91       	lpm	r25, Z
                cli();
		*reg &= ~bit;
		*out |= bit;
		SREG = oldSREG;
	} else {
		uint8_t oldSREG = SREG;
    1114:	8f b7       	in	r24, 0x3f	; 63
                cli();
    1116:	f8 94       	cli
		*reg |= bit;
    1118:	ec 91       	ld	r30, X
    111a:	e2 2b       	or	r30, r18
    111c:	ec 93       	st	X, r30
		SREG = oldSREG;
    111e:	8f bf       	out	0x3f, r24	; 63
	}
}
    1120:	08 95       	ret

00001122 <__vector_16>:
#if defined(TIM0_OVF_vect)
ISR(TIM0_OVF_vect)
#else
ISR(TIMER0_OVF_vect)
#endif
{
    1122:	1f 92       	push	r1
    1124:	0f 92       	push	r0
    1126:	0f b6       	in	r0, 0x3f	; 63
    1128:	0f 92       	push	r0
    112a:	11 24       	eor	r1, r1
    112c:	2f 93       	push	r18
    112e:	3f 93       	push	r19
    1130:	8f 93       	push	r24
    1132:	9f 93       	push	r25
    1134:	af 93       	push	r26
    1136:	bf 93       	push	r27
	// copy these to local variables so they can be stored in registers
	// (volatile variables must be read from memory on every access)
	unsigned long m = timer0_millis;
    1138:	80 91 0d 01 	lds	r24, 0x010D	; 0x80010d <timer0_millis>
    113c:	90 91 0e 01 	lds	r25, 0x010E	; 0x80010e <timer0_millis+0x1>
    1140:	a0 91 0f 01 	lds	r26, 0x010F	; 0x80010f <timer0_millis+0x2>
    1144:	b0 91 10 01 	lds	r27, 0x0110	; 0x800110 <timer0_millis+0x3>
	unsigned char f = timer0_fract;
    1148:	30 91 0c 01 	lds	r19, 0x010C	; 0x80010c <timer0_fract>

	m += MILLIS_INC;
	f += FRACT_INC;
    114c:	23 e0       	ldi	r18, 0x03	; 3
    114e:	23 0f       	add	r18, r19
	if (f >= FRACT_MAX) {
    1150:	2d 37       	cpi	r18, 0x7D	; 125
    1152:	58 f5       	brcc	.+86     	; 0x11aa <__vector_16+0x88>
	// copy these to local variables so they can be stored in registers
	// (volatile variables must be read from memory on every access)
	unsigned long m = timer0_millis;
	unsigned char f = timer0_fract;

	m += MILLIS_INC;
    1154:	01 96       	adiw	r24, 0x01	; 1
    1156:	a1 1d       	adc	r26, r1
    1158:	b1 1d       	adc	r27, r1
	if (f >= FRACT_MAX) {
		f -= FRACT_MAX;
		m += 1;
	}

	timer0_fract = f;
    115a:	20 93 0c 01 	sts	0x010C, r18	; 0x80010c <timer0_fract>
	timer0_millis = m;
    115e:	80 93 0d 01 	sts	0x010D, r24	; 0x80010d <timer0_millis>
    1162:	90 93 0e 01 	sts	0x010E, r25	; 0x80010e <timer0_millis+0x1>
    1166:	a0 93 0f 01 	sts	0x010F, r26	; 0x80010f <timer0_millis+0x2>
    116a:	b0 93 10 01 	sts	0x0110, r27	; 0x800110 <timer0_millis+0x3>
	timer0_overflow_count++;
    116e:	80 91 08 01 	lds	r24, 0x0108	; 0x800108 <timer0_overflow_count>
    1172:	90 91 09 01 	lds	r25, 0x0109	; 0x800109 <timer0_overflow_count+0x1>
    1176:	a0 91 0a 01 	lds	r26, 0x010A	; 0x80010a <timer0_overflow_count+0x2>
    117a:	b0 91 0b 01 	lds	r27, 0x010B	; 0x80010b <timer0_overflow_count+0x3>
    117e:	01 96       	adiw	r24, 0x01	; 1
    1180:	a1 1d       	adc	r26, r1
    1182:	b1 1d       	adc	r27, r1
    1184:	80 93 08 01 	sts	0x0108, r24	; 0x800108 <timer0_overflow_count>
    1188:	90 93 09 01 	sts	0x0109, r25	; 0x800109 <timer0_overflow_count+0x1>
    118c:	a0 93 0a 01 	sts	0x010A, r26	; 0x80010a <timer0_overflow_count+0x2>
    1190:	b0 93 0b 01 	sts	0x010B, r27	; 0x80010b <timer0_overflow_count+0x3>
}
    1194:	bf 91       	pop	r27
    1196:	af 91       	pop	r26
    1198:	9f 91       	pop	r25
    119a:	8f 91       	pop	r24
    119c:	3f 91       	pop	r19
    119e:	2f 91       	pop	r18
    11a0:	0f 90       	pop	r0
    11a2:	0f be       	out	0x3f, r0	; 63
    11a4:	0f 90       	pop	r0
    11a6:	1f 90       	pop	r1
    11a8:	18 95       	reti
	unsigned char f = timer0_fract;

	m += MILLIS_INC;
	f += FRACT_INC;
	if (f >= FRACT_MAX) {
		f -= FRACT_MAX;
    11aa:	26 e8       	ldi	r18, 0x86	; 134
    11ac:	23 0f       	add	r18, r19
		m += 1;
    11ae:	02 96       	adiw	r24, 0x02	; 2
    11b0:	a1 1d       	adc	r26, r1
    11b2:	b1 1d       	adc	r27, r1
    11b4:	d2 cf       	rjmp	.-92     	; 0x115a <__vector_16+0x38>

000011b6 <main>:

void init()
{
	// this needs to be called before setup() or some functions won't
	// work there
	sei();
    11b6:	78 94       	sei
	
	// on the ATmega168, timer 0 is also used for fast hardware pwm
	// (using phase-correct PWM would mean that timer 0 overflowed half as often
	// resulting in different millis() behavior on the ATmega8 and ATmega168)
#if defined(TCCR0A) && defined(WGM01)
	sbi(TCCR0A, WGM01);
    11b8:	84 b5       	in	r24, 0x24	; 36
    11ba:	82 60       	ori	r24, 0x02	; 2
    11bc:	84 bd       	out	0x24, r24	; 36
	sbi(TCCR0A, WGM00);
    11be:	84 b5       	in	r24, 0x24	; 36
    11c0:	81 60       	ori	r24, 0x01	; 1
    11c2:	84 bd       	out	0x24, r24	; 36
	// this combination is for the standard atmega8
	sbi(TCCR0, CS01);
	sbi(TCCR0, CS00);
#elif defined(TCCR0B) && defined(CS01) && defined(CS00)
	// this combination is for the standard 168/328/1280/2560
	sbi(TCCR0B, CS01);
    11c4:	85 b5       	in	r24, 0x25	; 37
    11c6:	82 60       	ori	r24, 0x02	; 2
    11c8:	85 bd       	out	0x25, r24	; 37
	sbi(TCCR0B, CS00);
    11ca:	85 b5       	in	r24, 0x25	; 37
    11cc:	81 60       	ori	r24, 0x01	; 1
    11ce:	85 bd       	out	0x25, r24	; 37

	// enable timer 0 overflow interrupt
#if defined(TIMSK) && defined(TOIE0)
	sbi(TIMSK, TOIE0);
#elif defined(TIMSK0) && defined(TOIE0)
	sbi(TIMSK0, TOIE0);
    11d0:	80 91 6e 00 	lds	r24, 0x006E	; 0x80006e <__DATA_REGION_ORIGIN__+0xe>
    11d4:	81 60       	ori	r24, 0x01	; 1
    11d6:	80 93 6e 00 	sts	0x006E, r24	; 0x80006e <__DATA_REGION_ORIGIN__+0xe>
	// this is better for motors as it ensures an even waveform
	// note, however, that fast pwm mode can achieve a frequency of up
	// 8 MHz (with a 16 MHz clock) at 50% duty cycle

#if defined(TCCR1B) && defined(CS11) && defined(CS10)
	TCCR1B = 0;
    11da:	10 92 81 00 	sts	0x0081, r1	; 0x800081 <__DATA_REGION_ORIGIN__+0x21>

	// set timer 1 prescale factor to 64
	sbi(TCCR1B, CS11);
    11de:	80 91 81 00 	lds	r24, 0x0081	; 0x800081 <__DATA_REGION_ORIGIN__+0x21>
    11e2:	82 60       	ori	r24, 0x02	; 2
    11e4:	80 93 81 00 	sts	0x0081, r24	; 0x800081 <__DATA_REGION_ORIGIN__+0x21>
#if F_CPU >= 8000000L
	sbi(TCCR1B, CS10);
    11e8:	80 91 81 00 	lds	r24, 0x0081	; 0x800081 <__DATA_REGION_ORIGIN__+0x21>
    11ec:	81 60       	ori	r24, 0x01	; 1
    11ee:	80 93 81 00 	sts	0x0081, r24	; 0x800081 <__DATA_REGION_ORIGIN__+0x21>
	sbi(TCCR1, CS10);
#endif
#endif
	// put timer 1 in 8-bit phase correct pwm mode
#if defined(TCCR1A) && defined(WGM10)
	sbi(TCCR1A, WGM10);
    11f2:	80 91 80 00 	lds	r24, 0x0080	; 0x800080 <__DATA_REGION_ORIGIN__+0x20>
    11f6:	81 60       	ori	r24, 0x01	; 1
    11f8:	80 93 80 00 	sts	0x0080, r24	; 0x800080 <__DATA_REGION_ORIGIN__+0x20>

	// set timer 2 prescale factor to 64
#if defined(TCCR2) && defined(CS22)
	sbi(TCCR2, CS22);
#elif defined(TCCR2B) && defined(CS22)
	sbi(TCCR2B, CS22);
    11fc:	80 91 b1 00 	lds	r24, 0x00B1	; 0x8000b1 <__DATA_REGION_ORIGIN__+0x51>
    1200:	84 60       	ori	r24, 0x04	; 4
    1202:	80 93 b1 00 	sts	0x00B1, r24	; 0x8000b1 <__DATA_REGION_ORIGIN__+0x51>

	// configure timer 2 for phase correct pwm (8-bit)
#if defined(TCCR2) && defined(WGM20)
	sbi(TCCR2, WGM20);
#elif defined(TCCR2A) && defined(WGM20)
	sbi(TCCR2A, WGM20);
    1206:	80 91 b0 00 	lds	r24, 0x00B0	; 0x8000b0 <__DATA_REGION_ORIGIN__+0x50>
    120a:	81 60       	ori	r24, 0x01	; 1
    120c:	80 93 b0 00 	sts	0x00B0, r24	; 0x8000b0 <__DATA_REGION_ORIGIN__+0x50>
#endif

#if defined(ADCSRA)
	// set a2d prescaler so we are inside the desired 50-200 KHz range.
	#if F_CPU >= 16000000 // 16 MHz / 128 = 125 KHz
		sbi(ADCSRA, ADPS2);
    1210:	80 91 7a 00 	lds	r24, 0x007A	; 0x80007a <__DATA_REGION_ORIGIN__+0x1a>
    1214:	84 60       	ori	r24, 0x04	; 4
    1216:	80 93 7a 00 	sts	0x007A, r24	; 0x80007a <__DATA_REGION_ORIGIN__+0x1a>
		sbi(ADCSRA, ADPS1);
    121a:	80 91 7a 00 	lds	r24, 0x007A	; 0x80007a <__DATA_REGION_ORIGIN__+0x1a>
    121e:	82 60       	ori	r24, 0x02	; 2
    1220:	80 93 7a 00 	sts	0x007A, r24	; 0x80007a <__DATA_REGION_ORIGIN__+0x1a>
		sbi(ADCSRA, ADPS0);
    1224:	80 91 7a 00 	lds	r24, 0x007A	; 0x80007a <__DATA_REGION_ORIGIN__+0x1a>
    1228:	81 60       	ori	r24, 0x01	; 1
    122a:	80 93 7a 00 	sts	0x007A, r24	; 0x80007a <__DATA_REGION_ORIGIN__+0x1a>
		cbi(ADCSRA, ADPS2);
		cbi(ADCSRA, ADPS1);
		sbi(ADCSRA, ADPS0);
	#endif
	// enable a2d conversions
	sbi(ADCSRA, ADEN);
    122e:	80 91 7a 00 	lds	r24, 0x007A	; 0x80007a <__DATA_REGION_ORIGIN__+0x1a>
    1232:	80 68       	ori	r24, 0x80	; 128
    1234:	80 93 7a 00 	sts	0x007A, r24	; 0x80007a <__DATA_REGION_ORIGIN__+0x1a>
	// here so they can be used as normal digital i/o; they will be
	// reconnected in Serial.begin()
#if defined(UCSRB)
	UCSRB = 0;
#elif defined(UCSR0B)
	UCSR0B = 0;
    1238:	10 92 c1 00 	sts	0x00C1, r1	; 0x8000c1 <__DATA_REGION_ORIGIN__+0x61>
	
	setup();
    
	for (;;) {
		loop();
		if (serialEventRun) serialEventRun();
    123c:	c0 e0       	ldi	r28, 0x00	; 0
    123e:	d0 e0       	ldi	r29, 0x00	; 0

void setupUSB() __attribute__((weak));
void setupUSB() { }

int main(void)
{
    1240:	50 e0       	ldi	r21, 0x00	; 0
    1242:	40 e0       	ldi	r20, 0x00	; 0
private:
    uint8_t rows = 0, coloumns = 0, row = 0, red = 0, green = 0, blue = 0;

    inline void stepRow()
    {
        if (row == 0)
    1244:	80 91 04 01 	lds	r24, 0x0104	; 0x800104 <_edata+0x4>
    1248:	81 11       	cpse	r24, r1
    124a:	0c 94 51 2a 	jmp	0x54a2	; 0x54a2 <main+0x42ec>
        {
            HIGH_RC;
    124e:	42 9a       	sbi	0x08, 2	; 8
            HIGH_RA;
    1250:	40 9a       	sbi	0x08, 0	; 8
            CLEAR_RA;
    1252:	40 98       	cbi	0x08, 0	; 8
            CLEAR_RC;
    1254:	42 98       	cbi	0x08, 2	; 8
        else
        {
            HIGH_RA;
            CLEAR_RA;
        }
        row = (row + 1) & 31;
    1256:	8f 5f       	subi	r24, 0xFF	; 255
    1258:	8f 71       	andi	r24, 0x1F	; 31
    125a:	80 93 04 01 	sts	0x0104, r24	; 0x800104 <_edata+0x4>
            // we integer divide the screen by 2 and then set 16 led to 8 values in pairs
            // bitness needs to be between 1 and 12, changes sent bitdepth. the lower, the faster
            // advance over 16 led to the next chip (4 led at 2x2 real life led per index in buffer -> 16/4/2=2) so 8 times every second row

            // we send first the MMSB, then MSB, LSB, LLSB
            index = ((y & ~1) << 5);
    125e:	ca 01       	movw	r24, r20
    1260:	80 7c       	andi	r24, 0xC0	; 192

#pragma region MMSB
            // chip 0
            SET_COLOR(pgm_read_byte(buffer + index + 0));
    1262:	e0 91 00 01 	lds	r30, 0x0100	; 0x800100 <_edata>
    1266:	f0 91 01 01 	lds	r31, 0x0101	; 0x800101 <_edata+0x1>
    126a:	e8 0f       	add	r30, r24
    126c:	f9 1f       	adc	r31, r25
    126e:	e4 91       	lpm	r30, Z
    1270:	2b b1       	in	r18, 0x0b	; 11
    1272:	34 e0       	ldi	r19, 0x04	; 4
    1274:	e3 9f       	mul	r30, r19
    1276:	f0 01       	movw	r30, r0
    1278:	11 24       	eor	r1, r1
    127a:	23 70       	andi	r18, 0x03	; 3
    127c:	e2 2b       	or	r30, r18
    127e:	eb b9       	out	0x0b, r30	; 11
            PWCLK_GCLK;
    1280:	25 b1       	in	r18, 0x05	; 5
    1282:	2a 60       	ori	r18, 0x0A	; 10
    1284:	25 b9       	out	0x05, r18	; 5
    1286:	25 b1       	in	r18, 0x05	; 5
    1288:	25 7f       	andi	r18, 0xF5	; 245
    128a:	25 b9       	out	0x05, r18	; 5
            PWCLK_GCLK;
    128c:	25 b1       	in	r18, 0x05	; 5
    128e:	2a 60       	ori	r18, 0x0A	; 10
    1290:	25 b9       	out	0x05, r18	; 5
    1292:	25 b1       	in	r18, 0x05	; 5
    1294:	25 7f       	andi	r18, 0xF5	; 245
    1296:	25 b9       	out	0x05, r18	; 5
            SET_COLOR(pgm_read_byte(buffer + index + 1));
    1298:	9c 01       	movw	r18, r24
    129a:	2f 5f       	subi	r18, 0xFF	; 255
    129c:	3f 4f       	sbci	r19, 0xFF	; 255
    129e:	e0 91 00 01 	lds	r30, 0x0100	; 0x800100 <_edata>
    12a2:	f0 91 01 01 	lds	r31, 0x0101	; 0x800101 <_edata+0x1>
    12a6:	e2 0f       	add	r30, r18
    12a8:	f3 1f       	adc	r31, r19
    12aa:	e4 91       	lpm	r30, Z
    12ac:	2b b1       	in	r18, 0x0b	; 11
    12ae:	64 e0       	ldi	r22, 0x04	; 4
    12b0:	e6 9f       	mul	r30, r22
    12b2:	f0 01       	movw	r30, r0
    12b4:	11 24       	eor	r1, r1
    12b6:	23 70       	andi	r18, 0x03	; 3
    12b8:	e2 2b       	or	r30, r18
    12ba:	eb b9       	out	0x0b, r30	; 11
            PWCLK_GCLK;
    12bc:	25 b1       	in	r18, 0x05	; 5
    12be:	2a 60       	ori	r18, 0x0A	; 10
    12c0:	25 b9       	out	0x05, r18	; 5
    12c2:	25 b1       	in	r18, 0x05	; 5
    12c4:	25 7f       	andi	r18, 0xF5	; 245
    12c6:	25 b9       	out	0x05, r18	; 5
            PWCLK_GCLK;
    12c8:	25 b1       	in	r18, 0x05	; 5
    12ca:	2a 60       	ori	r18, 0x0A	; 10
    12cc:	25 b9       	out	0x05, r18	; 5
    12ce:	25 b1       	in	r18, 0x05	; 5
    12d0:	25 7f       	andi	r18, 0xF5	; 245
    12d2:	25 b9       	out	0x05, r18	; 5
            SET_COLOR(pgm_read_byte(buffer + index + 2));
    12d4:	9c 01       	movw	r18, r24
    12d6:	2e 5f       	subi	r18, 0xFE	; 254
    12d8:	3f 4f       	sbci	r19, 0xFF	; 255
    12da:	e0 91 00 01 	lds	r30, 0x0100	; 0x800100 <_edata>
    12de:	f0 91 01 01 	lds	r31, 0x0101	; 0x800101 <_edata+0x1>
    12e2:	e2 0f       	add	r30, r18
    12e4:	f3 1f       	adc	r31, r19
    12e6:	e4 91       	lpm	r30, Z
    12e8:	2b b1       	in	r18, 0x0b	; 11
    12ea:	74 e0       	ldi	r23, 0x04	; 4
    12ec:	e7 9f       	mul	r30, r23
    12ee:	f0 01       	movw	r30, r0
    12f0:	11 24       	eor	r1, r1
    12f2:	23 70       	andi	r18, 0x03	; 3
    12f4:	e2 2b       	or	r30, r18
    12f6:	eb b9       	out	0x0b, r30	; 11
            PWCLK_GCLK;
    12f8:	25 b1       	in	r18, 0x05	; 5
    12fa:	2a 60       	ori	r18, 0x0A	; 10
    12fc:	25 b9       	out	0x05, r18	; 5
    12fe:	25 b1       	in	r18, 0x05	; 5
    1300:	25 7f       	andi	r18, 0xF5	; 245
    1302:	25 b9       	out	0x05, r18	; 5
            PWCLK_GCLK;
    1304:	25 b1       	in	r18, 0x05	; 5
    1306:	2a 60       	ori	r18, 0x0A	; 10
    1308:	25 b9       	out	0x05, r18	; 5
    130a:	25 b1       	in	r18, 0x05	; 5
    130c:	25 7f       	andi	r18, 0xF5	; 245
    130e:	25 b9       	out	0x05, r18	; 5
            SET_COLOR(pgm_read_byte(buffer + index + 3));
    1310:	9c 01       	movw	r18, r24
    1312:	2d 5f       	subi	r18, 0xFD	; 253
    1314:	3f 4f       	sbci	r19, 0xFF	; 255
    1316:	e0 91 00 01 	lds	r30, 0x0100	; 0x800100 <_edata>
    131a:	f0 91 01 01 	lds	r31, 0x0101	; 0x800101 <_edata+0x1>
    131e:	e2 0f       	add	r30, r18
    1320:	f3 1f       	adc	r31, r19
    1322:	e4 91       	lpm	r30, Z
    1324:	2b b1       	in	r18, 0x0b	; 11
    1326:	34 e0       	ldi	r19, 0x04	; 4
    1328:	e3 9f       	mul	r30, r19
    132a:	f0 01       	movw	r30, r0
    132c:	11 24       	eor	r1, r1
    132e:	23 70       	andi	r18, 0x03	; 3
    1330:	e2 2b       	or	r30, r18
    1332:	eb b9       	out	0x0b, r30	; 11
            PWCLK_GCLK;
    1334:	25 b1       	in	r18, 0x05	; 5
    1336:	2a 60       	ori	r18, 0x0A	; 10
    1338:	25 b9       	out	0x05, r18	; 5
    133a:	25 b1       	in	r18, 0x05	; 5
    133c:	25 7f       	andi	r18, 0xF5	; 245
    133e:	25 b9       	out	0x05, r18	; 5
            PWCLK_GCLK;
    1340:	25 b1       	in	r18, 0x05	; 5
    1342:	2a 60       	ori	r18, 0x0A	; 10
    1344:	25 b9       	out	0x05, r18	; 5
    1346:	25 b1       	in	r18, 0x05	; 5
    1348:	25 7f       	andi	r18, 0xF5	; 245
    134a:	25 b9       	out	0x05, r18	; 5
            SET_COLOR(pgm_read_byte(buffer + index + 4));
    134c:	9c 01       	movw	r18, r24
    134e:	2c 5f       	subi	r18, 0xFC	; 252
    1350:	3f 4f       	sbci	r19, 0xFF	; 255
    1352:	e0 91 00 01 	lds	r30, 0x0100	; 0x800100 <_edata>
    1356:	f0 91 01 01 	lds	r31, 0x0101	; 0x800101 <_edata+0x1>
    135a:	e2 0f       	add	r30, r18
    135c:	f3 1f       	adc	r31, r19
    135e:	e4 91       	lpm	r30, Z
    1360:	2b b1       	in	r18, 0x0b	; 11
    1362:	64 e0       	ldi	r22, 0x04	; 4
    1364:	e6 9f       	mul	r30, r22
    1366:	f0 01       	movw	r30, r0
    1368:	11 24       	eor	r1, r1
    136a:	23 70       	andi	r18, 0x03	; 3
    136c:	e2 2b       	or	r30, r18
    136e:	eb b9       	out	0x0b, r30	; 11
            PWCLK_GCLK;
    1370:	25 b1       	in	r18, 0x05	; 5
    1372:	2a 60       	ori	r18, 0x0A	; 10
    1374:	25 b9       	out	0x05, r18	; 5
    1376:	25 b1       	in	r18, 0x05	; 5
    1378:	25 7f       	andi	r18, 0xF5	; 245
    137a:	25 b9       	out	0x05, r18	; 5
            PWCLK_GCLK;
    137c:	25 b1       	in	r18, 0x05	; 5
    137e:	2a 60       	ori	r18, 0x0A	; 10
    1380:	25 b9       	out	0x05, r18	; 5
    1382:	25 b1       	in	r18, 0x05	; 5
    1384:	25 7f       	andi	r18, 0xF5	; 245
    1386:	25 b9       	out	0x05, r18	; 5
            SET_COLOR(pgm_read_byte(buffer + index + 5));
    1388:	9c 01       	movw	r18, r24
    138a:	2b 5f       	subi	r18, 0xFB	; 251
    138c:	3f 4f       	sbci	r19, 0xFF	; 255
    138e:	e0 91 00 01 	lds	r30, 0x0100	; 0x800100 <_edata>
    1392:	f0 91 01 01 	lds	r31, 0x0101	; 0x800101 <_edata+0x1>
    1396:	e2 0f       	add	r30, r18
    1398:	f3 1f       	adc	r31, r19
    139a:	e4 91       	lpm	r30, Z
    139c:	2b b1       	in	r18, 0x0b	; 11
    139e:	74 e0       	ldi	r23, 0x04	; 4
    13a0:	e7 9f       	mul	r30, r23
    13a2:	f0 01       	movw	r30, r0
    13a4:	11 24       	eor	r1, r1
    13a6:	23 70       	andi	r18, 0x03	; 3
    13a8:	e2 2b       	or	r30, r18
    13aa:	eb b9       	out	0x0b, r30	; 11
            PWCLK_GCLK;
    13ac:	25 b1       	in	r18, 0x05	; 5
    13ae:	2a 60       	ori	r18, 0x0A	; 10
    13b0:	25 b9       	out	0x05, r18	; 5
    13b2:	25 b1       	in	r18, 0x05	; 5
    13b4:	25 7f       	andi	r18, 0xF5	; 245
    13b6:	25 b9       	out	0x05, r18	; 5
            PWCLK_GCLK;
    13b8:	25 b1       	in	r18, 0x05	; 5
    13ba:	2a 60       	ori	r18, 0x0A	; 10
    13bc:	25 b9       	out	0x05, r18	; 5
    13be:	25 b1       	in	r18, 0x05	; 5
    13c0:	25 7f       	andi	r18, 0xF5	; 245
    13c2:	25 b9       	out	0x05, r18	; 5
            SET_COLOR(pgm_read_byte(buffer + index + 6));
    13c4:	9c 01       	movw	r18, r24
    13c6:	2a 5f       	subi	r18, 0xFA	; 250
    13c8:	3f 4f       	sbci	r19, 0xFF	; 255
    13ca:	e0 91 00 01 	lds	r30, 0x0100	; 0x800100 <_edata>
    13ce:	f0 91 01 01 	lds	r31, 0x0101	; 0x800101 <_edata+0x1>
    13d2:	e2 0f       	add	r30, r18
    13d4:	f3 1f       	adc	r31, r19
    13d6:	e4 91       	lpm	r30, Z
    13d8:	2b b1       	in	r18, 0x0b	; 11
    13da:	34 e0       	ldi	r19, 0x04	; 4
    13dc:	e3 9f       	mul	r30, r19
    13de:	f0 01       	movw	r30, r0
    13e0:	11 24       	eor	r1, r1
    13e2:	23 70       	andi	r18, 0x03	; 3
    13e4:	e2 2b       	or	r30, r18
    13e6:	eb b9       	out	0x0b, r30	; 11
            PWCLK_GCLK;
    13e8:	25 b1       	in	r18, 0x05	; 5
    13ea:	2a 60       	ori	r18, 0x0A	; 10
    13ec:	25 b9       	out	0x05, r18	; 5
    13ee:	25 b1       	in	r18, 0x05	; 5
    13f0:	25 7f       	andi	r18, 0xF5	; 245
    13f2:	25 b9       	out	0x05, r18	; 5
            PWCLK_GCLK;
    13f4:	25 b1       	in	r18, 0x05	; 5
    13f6:	2a 60       	ori	r18, 0x0A	; 10
    13f8:	25 b9       	out	0x05, r18	; 5
    13fa:	25 b1       	in	r18, 0x05	; 5
    13fc:	25 7f       	andi	r18, 0xF5	; 245
    13fe:	25 b9       	out	0x05, r18	; 5
            SET_COLOR(pgm_read_byte(buffer + index + 7));
    1400:	9c 01       	movw	r18, r24
    1402:	29 5f       	subi	r18, 0xF9	; 249
    1404:	3f 4f       	sbci	r19, 0xFF	; 255
    1406:	e0 91 00 01 	lds	r30, 0x0100	; 0x800100 <_edata>
    140a:	f0 91 01 01 	lds	r31, 0x0101	; 0x800101 <_edata+0x1>
    140e:	e2 0f       	add	r30, r18
    1410:	f3 1f       	adc	r31, r19
    1412:	e4 91       	lpm	r30, Z
    1414:	2b b1       	in	r18, 0x0b	; 11
    1416:	64 e0       	ldi	r22, 0x04	; 4
    1418:	e6 9f       	mul	r30, r22
    141a:	f0 01       	movw	r30, r0
    141c:	11 24       	eor	r1, r1
    141e:	23 70       	andi	r18, 0x03	; 3
    1420:	e2 2b       	or	r30, r18
    1422:	eb b9       	out	0x0b, r30	; 11
            PWCLK_GCLK;
    1424:	25 b1       	in	r18, 0x05	; 5
    1426:	2a 60       	ori	r18, 0x0A	; 10
    1428:	25 b9       	out	0x05, r18	; 5
    142a:	25 b1       	in	r18, 0x05	; 5
    142c:	25 7f       	andi	r18, 0xF5	; 245
    142e:	25 b9       	out	0x05, r18	; 5
            PWCLK_GCLK;
    1430:	25 b1       	in	r18, 0x05	; 5
    1432:	2a 60       	ori	r18, 0x0A	; 10
    1434:	25 b9       	out	0x05, r18	; 5
    1436:	25 b1       	in	r18, 0x05	; 5
    1438:	25 7f       	andi	r18, 0xF5	; 245
    143a:	25 b9       	out	0x05, r18	; 5

            // chip 1
            SET_COLOR(pgm_read_byte(buffer + index + 8));
    143c:	9c 01       	movw	r18, r24
    143e:	28 5f       	subi	r18, 0xF8	; 248
    1440:	3f 4f       	sbci	r19, 0xFF	; 255
    1442:	e0 91 00 01 	lds	r30, 0x0100	; 0x800100 <_edata>
    1446:	f0 91 01 01 	lds	r31, 0x0101	; 0x800101 <_edata+0x1>
    144a:	e2 0f       	add	r30, r18
    144c:	f3 1f       	adc	r31, r19
    144e:	e4 91       	lpm	r30, Z
    1450:	2b b1       	in	r18, 0x0b	; 11
    1452:	74 e0       	ldi	r23, 0x04	; 4
    1454:	e7 9f       	mul	r30, r23
    1456:	f0 01       	movw	r30, r0
    1458:	11 24       	eor	r1, r1
    145a:	23 70       	andi	r18, 0x03	; 3
    145c:	e2 2b       	or	r30, r18
    145e:	eb b9       	out	0x0b, r30	; 11
            PWCLK_GCLK;
    1460:	25 b1       	in	r18, 0x05	; 5
    1462:	2a 60       	ori	r18, 0x0A	; 10
    1464:	25 b9       	out	0x05, r18	; 5
    1466:	25 b1       	in	r18, 0x05	; 5
    1468:	25 7f       	andi	r18, 0xF5	; 245
    146a:	25 b9       	out	0x05, r18	; 5
            PWCLK_GCLK;
    146c:	25 b1       	in	r18, 0x05	; 5
    146e:	2a 60       	ori	r18, 0x0A	; 10
    1470:	25 b9       	out	0x05, r18	; 5
    1472:	25 b1       	in	r18, 0x05	; 5
    1474:	25 7f       	andi	r18, 0xF5	; 245
    1476:	25 b9       	out	0x05, r18	; 5
            SET_COLOR(pgm_read_byte(buffer + index + 9));
    1478:	9c 01       	movw	r18, r24
    147a:	27 5f       	subi	r18, 0xF7	; 247
    147c:	3f 4f       	sbci	r19, 0xFF	; 255
    147e:	e0 91 00 01 	lds	r30, 0x0100	; 0x800100 <_edata>
    1482:	f0 91 01 01 	lds	r31, 0x0101	; 0x800101 <_edata+0x1>
    1486:	e2 0f       	add	r30, r18
    1488:	f3 1f       	adc	r31, r19
    148a:	e4 91       	lpm	r30, Z
    148c:	2b b1       	in	r18, 0x0b	; 11
    148e:	34 e0       	ldi	r19, 0x04	; 4
    1490:	e3 9f       	mul	r30, r19
    1492:	f0 01       	movw	r30, r0
    1494:	11 24       	eor	r1, r1
    1496:	23 70       	andi	r18, 0x03	; 3
    1498:	e2 2b       	or	r30, r18
    149a:	eb b9       	out	0x0b, r30	; 11
            PWCLK_GCLK;
    149c:	25 b1       	in	r18, 0x05	; 5
    149e:	2a 60       	ori	r18, 0x0A	; 10
    14a0:	25 b9       	out	0x05, r18	; 5
    14a2:	25 b1       	in	r18, 0x05	; 5
    14a4:	25 7f       	andi	r18, 0xF5	; 245
    14a6:	25 b9       	out	0x05, r18	; 5
            PWCLK_GCLK;
    14a8:	25 b1       	in	r18, 0x05	; 5
    14aa:	2a 60       	ori	r18, 0x0A	; 10
    14ac:	25 b9       	out	0x05, r18	; 5
    14ae:	25 b1       	in	r18, 0x05	; 5
    14b0:	25 7f       	andi	r18, 0xF5	; 245
    14b2:	25 b9       	out	0x05, r18	; 5
            SET_COLOR(pgm_read_byte(buffer + index + 10));
    14b4:	9c 01       	movw	r18, r24
    14b6:	26 5f       	subi	r18, 0xF6	; 246
    14b8:	3f 4f       	sbci	r19, 0xFF	; 255
    14ba:	e0 91 00 01 	lds	r30, 0x0100	; 0x800100 <_edata>
    14be:	f0 91 01 01 	lds	r31, 0x0101	; 0x800101 <_edata+0x1>
    14c2:	e2 0f       	add	r30, r18
    14c4:	f3 1f       	adc	r31, r19
    14c6:	e4 91       	lpm	r30, Z
    14c8:	2b b1       	in	r18, 0x0b	; 11
    14ca:	64 e0       	ldi	r22, 0x04	; 4
    14cc:	e6 9f       	mul	r30, r22
    14ce:	f0 01       	movw	r30, r0
    14d0:	11 24       	eor	r1, r1
    14d2:	23 70       	andi	r18, 0x03	; 3
    14d4:	e2 2b       	or	r30, r18
    14d6:	eb b9       	out	0x0b, r30	; 11
            PWCLK_GCLK;
    14d8:	25 b1       	in	r18, 0x05	; 5
    14da:	2a 60       	ori	r18, 0x0A	; 10
    14dc:	25 b9       	out	0x05, r18	; 5
    14de:	25 b1       	in	r18, 0x05	; 5
    14e0:	25 7f       	andi	r18, 0xF5	; 245
    14e2:	25 b9       	out	0x05, r18	; 5
            PWCLK_GCLK;
    14e4:	25 b1       	in	r18, 0x05	; 5
    14e6:	2a 60       	ori	r18, 0x0A	; 10
    14e8:	25 b9       	out	0x05, r18	; 5
    14ea:	25 b1       	in	r18, 0x05	; 5
    14ec:	25 7f       	andi	r18, 0xF5	; 245
    14ee:	25 b9       	out	0x05, r18	; 5
            SET_COLOR(pgm_read_byte(buffer + index + 11));
    14f0:	9c 01       	movw	r18, r24
    14f2:	25 5f       	subi	r18, 0xF5	; 245
    14f4:	3f 4f       	sbci	r19, 0xFF	; 255
    14f6:	e0 91 00 01 	lds	r30, 0x0100	; 0x800100 <_edata>
    14fa:	f0 91 01 01 	lds	r31, 0x0101	; 0x800101 <_edata+0x1>
    14fe:	e2 0f       	add	r30, r18
    1500:	f3 1f       	adc	r31, r19
    1502:	e4 91       	lpm	r30, Z
    1504:	2b b1       	in	r18, 0x0b	; 11
    1506:	74 e0       	ldi	r23, 0x04	; 4
    1508:	e7 9f       	mul	r30, r23
    150a:	f0 01       	movw	r30, r0
    150c:	11 24       	eor	r1, r1
    150e:	23 70       	andi	r18, 0x03	; 3
    1510:	e2 2b       	or	r30, r18
    1512:	eb b9       	out	0x0b, r30	; 11
            PWCLK_GCLK;
    1514:	25 b1       	in	r18, 0x05	; 5
    1516:	2a 60       	ori	r18, 0x0A	; 10
    1518:	25 b9       	out	0x05, r18	; 5
    151a:	25 b1       	in	r18, 0x05	; 5
    151c:	25 7f       	andi	r18, 0xF5	; 245
    151e:	25 b9       	out	0x05, r18	; 5
            PWCLK_GCLK;
    1520:	25 b1       	in	r18, 0x05	; 5
    1522:	2a 60       	ori	r18, 0x0A	; 10
    1524:	25 b9       	out	0x05, r18	; 5
    1526:	25 b1       	in	r18, 0x05	; 5
    1528:	25 7f       	andi	r18, 0xF5	; 245
    152a:	25 b9       	out	0x05, r18	; 5
            SET_COLOR(pgm_read_byte(buffer + index + 12));
    152c:	9c 01       	movw	r18, r24
    152e:	24 5f       	subi	r18, 0xF4	; 244
    1530:	3f 4f       	sbci	r19, 0xFF	; 255
    1532:	e0 91 00 01 	lds	r30, 0x0100	; 0x800100 <_edata>
    1536:	f0 91 01 01 	lds	r31, 0x0101	; 0x800101 <_edata+0x1>
    153a:	e2 0f       	add	r30, r18
    153c:	f3 1f       	adc	r31, r19
    153e:	e4 91       	lpm	r30, Z
    1540:	2b b1       	in	r18, 0x0b	; 11
    1542:	34 e0       	ldi	r19, 0x04	; 4
    1544:	e3 9f       	mul	r30, r19
    1546:	f0 01       	movw	r30, r0
    1548:	11 24       	eor	r1, r1
    154a:	23 70       	andi	r18, 0x03	; 3
    154c:	e2 2b       	or	r30, r18
    154e:	eb b9       	out	0x0b, r30	; 11
            PWCLK_GCLK;
    1550:	25 b1       	in	r18, 0x05	; 5
    1552:	2a 60       	ori	r18, 0x0A	; 10
    1554:	25 b9       	out	0x05, r18	; 5
    1556:	25 b1       	in	r18, 0x05	; 5
    1558:	25 7f       	andi	r18, 0xF5	; 245
    155a:	25 b9       	out	0x05, r18	; 5
            PWCLK_GCLK;
    155c:	25 b1       	in	r18, 0x05	; 5
    155e:	2a 60       	ori	r18, 0x0A	; 10
    1560:	25 b9       	out	0x05, r18	; 5
    1562:	25 b1       	in	r18, 0x05	; 5
    1564:	25 7f       	andi	r18, 0xF5	; 245
    1566:	25 b9       	out	0x05, r18	; 5
            SET_COLOR(pgm_read_byte(buffer + index + 13));
    1568:	9c 01       	movw	r18, r24
    156a:	23 5f       	subi	r18, 0xF3	; 243
    156c:	3f 4f       	sbci	r19, 0xFF	; 255
    156e:	e0 91 00 01 	lds	r30, 0x0100	; 0x800100 <_edata>
    1572:	f0 91 01 01 	lds	r31, 0x0101	; 0x800101 <_edata+0x1>
    1576:	e2 0f       	add	r30, r18
    1578:	f3 1f       	adc	r31, r19
    157a:	e4 91       	lpm	r30, Z
    157c:	2b b1       	in	r18, 0x0b	; 11
    157e:	64 e0       	ldi	r22, 0x04	; 4
    1580:	e6 9f       	mul	r30, r22
    1582:	f0 01       	movw	r30, r0
    1584:	11 24       	eor	r1, r1
    1586:	23 70       	andi	r18, 0x03	; 3
    1588:	e2 2b       	or	r30, r18
    158a:	eb b9       	out	0x0b, r30	; 11
            PWCLK_GCLK;
    158c:	25 b1       	in	r18, 0x05	; 5
    158e:	2a 60       	ori	r18, 0x0A	; 10
    1590:	25 b9       	out	0x05, r18	; 5
    1592:	25 b1       	in	r18, 0x05	; 5
    1594:	25 7f       	andi	r18, 0xF5	; 245
    1596:	25 b9       	out	0x05, r18	; 5
            PWCLK_GCLK;
    1598:	25 b1       	in	r18, 0x05	; 5
    159a:	2a 60       	ori	r18, 0x0A	; 10
    159c:	25 b9       	out	0x05, r18	; 5
    159e:	25 b1       	in	r18, 0x05	; 5
    15a0:	25 7f       	andi	r18, 0xF5	; 245
    15a2:	25 b9       	out	0x05, r18	; 5
            SET_COLOR(pgm_read_byte(buffer + index + 14));
    15a4:	9c 01       	movw	r18, r24
    15a6:	22 5f       	subi	r18, 0xF2	; 242
    15a8:	3f 4f       	sbci	r19, 0xFF	; 255
    15aa:	e0 91 00 01 	lds	r30, 0x0100	; 0x800100 <_edata>
    15ae:	f0 91 01 01 	lds	r31, 0x0101	; 0x800101 <_edata+0x1>
    15b2:	e2 0f       	add	r30, r18
    15b4:	f3 1f       	adc	r31, r19
    15b6:	e4 91       	lpm	r30, Z
    15b8:	2b b1       	in	r18, 0x0b	; 11
    15ba:	74 e0       	ldi	r23, 0x04	; 4
    15bc:	e7 9f       	mul	r30, r23
    15be:	f0 01       	movw	r30, r0
    15c0:	11 24       	eor	r1, r1
    15c2:	23 70       	andi	r18, 0x03	; 3
    15c4:	e2 2b       	or	r30, r18
    15c6:	eb b9       	out	0x0b, r30	; 11
            PWCLK_GCLK;
    15c8:	25 b1       	in	r18, 0x05	; 5
    15ca:	2a 60       	ori	r18, 0x0A	; 10
    15cc:	25 b9       	out	0x05, r18	; 5
    15ce:	25 b1       	in	r18, 0x05	; 5
    15d0:	25 7f       	andi	r18, 0xF5	; 245
    15d2:	25 b9       	out	0x05, r18	; 5
            PWCLK_GCLK;
    15d4:	25 b1       	in	r18, 0x05	; 5
    15d6:	2a 60       	ori	r18, 0x0A	; 10
    15d8:	25 b9       	out	0x05, r18	; 5
    15da:	25 b1       	in	r18, 0x05	; 5
    15dc:	25 7f       	andi	r18, 0xF5	; 245
    15de:	25 b9       	out	0x05, r18	; 5
            SET_COLOR(pgm_read_byte(buffer + index + 15));
    15e0:	9c 01       	movw	r18, r24
    15e2:	21 5f       	subi	r18, 0xF1	; 241
    15e4:	3f 4f       	sbci	r19, 0xFF	; 255
    15e6:	e0 91 00 01 	lds	r30, 0x0100	; 0x800100 <_edata>
    15ea:	f0 91 01 01 	lds	r31, 0x0101	; 0x800101 <_edata+0x1>
    15ee:	e2 0f       	add	r30, r18
    15f0:	f3 1f       	adc	r31, r19
    15f2:	e4 91       	lpm	r30, Z
    15f4:	2b b1       	in	r18, 0x0b	; 11
    15f6:	34 e0       	ldi	r19, 0x04	; 4
    15f8:	e3 9f       	mul	r30, r19
    15fa:	f0 01       	movw	r30, r0
    15fc:	11 24       	eor	r1, r1
    15fe:	23 70       	andi	r18, 0x03	; 3
    1600:	e2 2b       	or	r30, r18
    1602:	eb b9       	out	0x0b, r30	; 11
            PWCLK_GCLK;
    1604:	25 b1       	in	r18, 0x05	; 5
    1606:	2a 60       	ori	r18, 0x0A	; 10
    1608:	25 b9       	out	0x05, r18	; 5
    160a:	25 b1       	in	r18, 0x05	; 5
    160c:	25 7f       	andi	r18, 0xF5	; 245
    160e:	25 b9       	out	0x05, r18	; 5
            PWCLK_GCLK;
    1610:	25 b1       	in	r18, 0x05	; 5
    1612:	2a 60       	ori	r18, 0x0A	; 10
    1614:	25 b9       	out	0x05, r18	; 5
    1616:	25 b1       	in	r18, 0x05	; 5
    1618:	25 7f       	andi	r18, 0xF5	; 245
    161a:	25 b9       	out	0x05, r18	; 5

            // chip 2
            SET_COLOR(pgm_read_byte(buffer + index + 16));
    161c:	9c 01       	movw	r18, r24
    161e:	20 5f       	subi	r18, 0xF0	; 240
    1620:	3f 4f       	sbci	r19, 0xFF	; 255
    1622:	e0 91 00 01 	lds	r30, 0x0100	; 0x800100 <_edata>
    1626:	f0 91 01 01 	lds	r31, 0x0101	; 0x800101 <_edata+0x1>
    162a:	e2 0f       	add	r30, r18
    162c:	f3 1f       	adc	r31, r19
    162e:	e4 91       	lpm	r30, Z
    1630:	2b b1       	in	r18, 0x0b	; 11
    1632:	64 e0       	ldi	r22, 0x04	; 4
    1634:	e6 9f       	mul	r30, r22
    1636:	f0 01       	movw	r30, r0
    1638:	11 24       	eor	r1, r1
    163a:	23 70       	andi	r18, 0x03	; 3
    163c:	e2 2b       	or	r30, r18
    163e:	eb b9       	out	0x0b, r30	; 11
            PWCLK_GCLK;
    1640:	25 b1       	in	r18, 0x05	; 5
    1642:	2a 60       	ori	r18, 0x0A	; 10
    1644:	25 b9       	out	0x05, r18	; 5
    1646:	25 b1       	in	r18, 0x05	; 5
    1648:	25 7f       	andi	r18, 0xF5	; 245
    164a:	25 b9       	out	0x05, r18	; 5
            PWCLK_GCLK;
    164c:	25 b1       	in	r18, 0x05	; 5
    164e:	2a 60       	ori	r18, 0x0A	; 10
    1650:	25 b9       	out	0x05, r18	; 5
    1652:	25 b1       	in	r18, 0x05	; 5
    1654:	25 7f       	andi	r18, 0xF5	; 245
    1656:	25 b9       	out	0x05, r18	; 5
            SET_COLOR(pgm_read_byte(buffer + index + 17));
    1658:	9c 01       	movw	r18, r24
    165a:	2f 5e       	subi	r18, 0xEF	; 239
    165c:	3f 4f       	sbci	r19, 0xFF	; 255
    165e:	e0 91 00 01 	lds	r30, 0x0100	; 0x800100 <_edata>
    1662:	f0 91 01 01 	lds	r31, 0x0101	; 0x800101 <_edata+0x1>
    1666:	e2 0f       	add	r30, r18
    1668:	f3 1f       	adc	r31, r19
    166a:	e4 91       	lpm	r30, Z
    166c:	2b b1       	in	r18, 0x0b	; 11
    166e:	74 e0       	ldi	r23, 0x04	; 4
    1670:	e7 9f       	mul	r30, r23
    1672:	f0 01       	movw	r30, r0
    1674:	11 24       	eor	r1, r1
    1676:	23 70       	andi	r18, 0x03	; 3
    1678:	e2 2b       	or	r30, r18
    167a:	eb b9       	out	0x0b, r30	; 11
            PWCLK_GCLK;
    167c:	25 b1       	in	r18, 0x05	; 5
    167e:	2a 60       	ori	r18, 0x0A	; 10
    1680:	25 b9       	out	0x05, r18	; 5
    1682:	25 b1       	in	r18, 0x05	; 5
    1684:	25 7f       	andi	r18, 0xF5	; 245
    1686:	25 b9       	out	0x05, r18	; 5
            PWCLK_GCLK;
    1688:	25 b1       	in	r18, 0x05	; 5
    168a:	2a 60       	ori	r18, 0x0A	; 10
    168c:	25 b9       	out	0x05, r18	; 5
    168e:	25 b1       	in	r18, 0x05	; 5
    1690:	25 7f       	andi	r18, 0xF5	; 245
    1692:	25 b9       	out	0x05, r18	; 5
            SET_COLOR(pgm_read_byte(buffer + index + 18));
    1694:	9c 01       	movw	r18, r24
    1696:	2e 5e       	subi	r18, 0xEE	; 238
    1698:	3f 4f       	sbci	r19, 0xFF	; 255
    169a:	e0 91 00 01 	lds	r30, 0x0100	; 0x800100 <_edata>
    169e:	f0 91 01 01 	lds	r31, 0x0101	; 0x800101 <_edata+0x1>
    16a2:	e2 0f       	add	r30, r18
    16a4:	f3 1f       	adc	r31, r19
    16a6:	e4 91       	lpm	r30, Z
    16a8:	2b b1       	in	r18, 0x0b	; 11
    16aa:	34 e0       	ldi	r19, 0x04	; 4
    16ac:	e3 9f       	mul	r30, r19
    16ae:	f0 01       	movw	r30, r0
    16b0:	11 24       	eor	r1, r1
    16b2:	23 70       	andi	r18, 0x03	; 3
    16b4:	e2 2b       	or	r30, r18
    16b6:	eb b9       	out	0x0b, r30	; 11
            PWCLK_GCLK;
    16b8:	25 b1       	in	r18, 0x05	; 5
    16ba:	2a 60       	ori	r18, 0x0A	; 10
    16bc:	25 b9       	out	0x05, r18	; 5
    16be:	25 b1       	in	r18, 0x05	; 5
    16c0:	25 7f       	andi	r18, 0xF5	; 245
    16c2:	25 b9       	out	0x05, r18	; 5
            PWCLK_GCLK;
    16c4:	25 b1       	in	r18, 0x05	; 5
    16c6:	2a 60       	ori	r18, 0x0A	; 10
    16c8:	25 b9       	out	0x05, r18	; 5
    16ca:	25 b1       	in	r18, 0x05	; 5
    16cc:	25 7f       	andi	r18, 0xF5	; 245
    16ce:	25 b9       	out	0x05, r18	; 5
            SET_COLOR(pgm_read_byte(buffer + index + 19));
    16d0:	9c 01       	movw	r18, r24
    16d2:	2d 5e       	subi	r18, 0xED	; 237
    16d4:	3f 4f       	sbci	r19, 0xFF	; 255
    16d6:	e0 91 00 01 	lds	r30, 0x0100	; 0x800100 <_edata>
    16da:	f0 91 01 01 	lds	r31, 0x0101	; 0x800101 <_edata+0x1>
    16de:	e2 0f       	add	r30, r18
    16e0:	f3 1f       	adc	r31, r19
    16e2:	e4 91       	lpm	r30, Z
    16e4:	2b b1       	in	r18, 0x0b	; 11
    16e6:	64 e0       	ldi	r22, 0x04	; 4
    16e8:	e6 9f       	mul	r30, r22
    16ea:	f0 01       	movw	r30, r0
    16ec:	11 24       	eor	r1, r1
    16ee:	23 70       	andi	r18, 0x03	; 3
    16f0:	e2 2b       	or	r30, r18
    16f2:	eb b9       	out	0x0b, r30	; 11
            PWCLK_GCLK;
    16f4:	25 b1       	in	r18, 0x05	; 5
    16f6:	2a 60       	ori	r18, 0x0A	; 10
    16f8:	25 b9       	out	0x05, r18	; 5
    16fa:	25 b1       	in	r18, 0x05	; 5
    16fc:	25 7f       	andi	r18, 0xF5	; 245
    16fe:	25 b9       	out	0x05, r18	; 5
            PWCLK_GCLK;
    1700:	25 b1       	in	r18, 0x05	; 5
    1702:	2a 60       	ori	r18, 0x0A	; 10
    1704:	25 b9       	out	0x05, r18	; 5
    1706:	25 b1       	in	r18, 0x05	; 5
    1708:	25 7f       	andi	r18, 0xF5	; 245
    170a:	25 b9       	out	0x05, r18	; 5
            SET_COLOR(pgm_read_byte(buffer + index + 20));
    170c:	9c 01       	movw	r18, r24
    170e:	2c 5e       	subi	r18, 0xEC	; 236
    1710:	3f 4f       	sbci	r19, 0xFF	; 255
    1712:	e0 91 00 01 	lds	r30, 0x0100	; 0x800100 <_edata>
    1716:	f0 91 01 01 	lds	r31, 0x0101	; 0x800101 <_edata+0x1>
    171a:	e2 0f       	add	r30, r18
    171c:	f3 1f       	adc	r31, r19
    171e:	e4 91       	lpm	r30, Z
    1720:	2b b1       	in	r18, 0x0b	; 11
    1722:	74 e0       	ldi	r23, 0x04	; 4
    1724:	e7 9f       	mul	r30, r23
    1726:	f0 01       	movw	r30, r0
    1728:	11 24       	eor	r1, r1
    172a:	23 70       	andi	r18, 0x03	; 3
    172c:	e2 2b       	or	r30, r18
    172e:	eb b9       	out	0x0b, r30	; 11
            PWCLK_GCLK;
    1730:	25 b1       	in	r18, 0x05	; 5
    1732:	2a 60       	ori	r18, 0x0A	; 10
    1734:	25 b9       	out	0x05, r18	; 5
    1736:	25 b1       	in	r18, 0x05	; 5
    1738:	25 7f       	andi	r18, 0xF5	; 245
    173a:	25 b9       	out	0x05, r18	; 5
            PWCLK_GCLK;
    173c:	25 b1       	in	r18, 0x05	; 5
    173e:	2a 60       	ori	r18, 0x0A	; 10
    1740:	25 b9       	out	0x05, r18	; 5
    1742:	25 b1       	in	r18, 0x05	; 5
    1744:	25 7f       	andi	r18, 0xF5	; 245
    1746:	25 b9       	out	0x05, r18	; 5
            SET_COLOR(pgm_read_byte(buffer + index + 21));
    1748:	9c 01       	movw	r18, r24
    174a:	2b 5e       	subi	r18, 0xEB	; 235
    174c:	3f 4f       	sbci	r19, 0xFF	; 255
    174e:	e0 91 00 01 	lds	r30, 0x0100	; 0x800100 <_edata>
    1752:	f0 91 01 01 	lds	r31, 0x0101	; 0x800101 <_edata+0x1>
    1756:	e2 0f       	add	r30, r18
    1758:	f3 1f       	adc	r31, r19
    175a:	e4 91       	lpm	r30, Z
    175c:	2b b1       	in	r18, 0x0b	; 11
    175e:	34 e0       	ldi	r19, 0x04	; 4
    1760:	e3 9f       	mul	r30, r19
    1762:	f0 01       	movw	r30, r0
    1764:	11 24       	eor	r1, r1
    1766:	23 70       	andi	r18, 0x03	; 3
    1768:	e2 2b       	or	r30, r18
    176a:	eb b9       	out	0x0b, r30	; 11
            PWCLK_GCLK;
    176c:	25 b1       	in	r18, 0x05	; 5
    176e:	2a 60       	ori	r18, 0x0A	; 10
    1770:	25 b9       	out	0x05, r18	; 5
    1772:	25 b1       	in	r18, 0x05	; 5
    1774:	25 7f       	andi	r18, 0xF5	; 245
    1776:	25 b9       	out	0x05, r18	; 5
            PWCLK_GCLK;
    1778:	25 b1       	in	r18, 0x05	; 5
    177a:	2a 60       	ori	r18, 0x0A	; 10
    177c:	25 b9       	out	0x05, r18	; 5
    177e:	25 b1       	in	r18, 0x05	; 5
    1780:	25 7f       	andi	r18, 0xF5	; 245
    1782:	25 b9       	out	0x05, r18	; 5
            SET_COLOR(pgm_read_byte(buffer + index + 22));
    1784:	9c 01       	movw	r18, r24
    1786:	2a 5e       	subi	r18, 0xEA	; 234
    1788:	3f 4f       	sbci	r19, 0xFF	; 255
    178a:	e0 91 00 01 	lds	r30, 0x0100	; 0x800100 <_edata>
    178e:	f0 91 01 01 	lds	r31, 0x0101	; 0x800101 <_edata+0x1>
    1792:	e2 0f       	add	r30, r18
    1794:	f3 1f       	adc	r31, r19
    1796:	e4 91       	lpm	r30, Z
    1798:	2b b1       	in	r18, 0x0b	; 11
    179a:	64 e0       	ldi	r22, 0x04	; 4
    179c:	e6 9f       	mul	r30, r22
    179e:	f0 01       	movw	r30, r0
    17a0:	11 24       	eor	r1, r1
    17a2:	23 70       	andi	r18, 0x03	; 3
    17a4:	e2 2b       	or	r30, r18
    17a6:	eb b9       	out	0x0b, r30	; 11
            PWCLK_GCLK;
    17a8:	25 b1       	in	r18, 0x05	; 5
    17aa:	2a 60       	ori	r18, 0x0A	; 10
    17ac:	25 b9       	out	0x05, r18	; 5
    17ae:	25 b1       	in	r18, 0x05	; 5
    17b0:	25 7f       	andi	r18, 0xF5	; 245
    17b2:	25 b9       	out	0x05, r18	; 5
            PWCLK_GCLK;
    17b4:	25 b1       	in	r18, 0x05	; 5
    17b6:	2a 60       	ori	r18, 0x0A	; 10
    17b8:	25 b9       	out	0x05, r18	; 5
    17ba:	25 b1       	in	r18, 0x05	; 5
    17bc:	25 7f       	andi	r18, 0xF5	; 245
    17be:	25 b9       	out	0x05, r18	; 5
            SET_COLOR(pgm_read_byte(buffer + index + 23));
    17c0:	9c 01       	movw	r18, r24
    17c2:	29 5e       	subi	r18, 0xE9	; 233
    17c4:	3f 4f       	sbci	r19, 0xFF	; 255
    17c6:	e0 91 00 01 	lds	r30, 0x0100	; 0x800100 <_edata>
    17ca:	f0 91 01 01 	lds	r31, 0x0101	; 0x800101 <_edata+0x1>
    17ce:	e2 0f       	add	r30, r18
    17d0:	f3 1f       	adc	r31, r19
    17d2:	e4 91       	lpm	r30, Z
    17d4:	2b b1       	in	r18, 0x0b	; 11
    17d6:	74 e0       	ldi	r23, 0x04	; 4
    17d8:	e7 9f       	mul	r30, r23
    17da:	f0 01       	movw	r30, r0
    17dc:	11 24       	eor	r1, r1
    17de:	23 70       	andi	r18, 0x03	; 3
    17e0:	e2 2b       	or	r30, r18
    17e2:	eb b9       	out	0x0b, r30	; 11
            PWCLK_GCLK;
    17e4:	25 b1       	in	r18, 0x05	; 5
    17e6:	2a 60       	ori	r18, 0x0A	; 10
    17e8:	25 b9       	out	0x05, r18	; 5
    17ea:	25 b1       	in	r18, 0x05	; 5
    17ec:	25 7f       	andi	r18, 0xF5	; 245
    17ee:	25 b9       	out	0x05, r18	; 5
            PWCLK_GCLK;
    17f0:	25 b1       	in	r18, 0x05	; 5
    17f2:	2a 60       	ori	r18, 0x0A	; 10
    17f4:	25 b9       	out	0x05, r18	; 5
    17f6:	25 b1       	in	r18, 0x05	; 5
    17f8:	25 7f       	andi	r18, 0xF5	; 245
    17fa:	25 b9       	out	0x05, r18	; 5

            // chip 3
            SET_COLOR(pgm_read_byte(buffer + index + 24));
    17fc:	9c 01       	movw	r18, r24
    17fe:	28 5e       	subi	r18, 0xE8	; 232
    1800:	3f 4f       	sbci	r19, 0xFF	; 255
    1802:	e0 91 00 01 	lds	r30, 0x0100	; 0x800100 <_edata>
    1806:	f0 91 01 01 	lds	r31, 0x0101	; 0x800101 <_edata+0x1>
    180a:	e2 0f       	add	r30, r18
    180c:	f3 1f       	adc	r31, r19
    180e:	e4 91       	lpm	r30, Z
    1810:	2b b1       	in	r18, 0x0b	; 11
    1812:	34 e0       	ldi	r19, 0x04	; 4
    1814:	e3 9f       	mul	r30, r19
    1816:	f0 01       	movw	r30, r0
    1818:	11 24       	eor	r1, r1
    181a:	23 70       	andi	r18, 0x03	; 3
    181c:	e2 2b       	or	r30, r18
    181e:	eb b9       	out	0x0b, r30	; 11
            PWCLK_GCLK;
    1820:	25 b1       	in	r18, 0x05	; 5
    1822:	2a 60       	ori	r18, 0x0A	; 10
    1824:	25 b9       	out	0x05, r18	; 5
    1826:	25 b1       	in	r18, 0x05	; 5
    1828:	25 7f       	andi	r18, 0xF5	; 245
    182a:	25 b9       	out	0x05, r18	; 5
            PWCLK_GCLK;
    182c:	25 b1       	in	r18, 0x05	; 5
    182e:	2a 60       	ori	r18, 0x0A	; 10
    1830:	25 b9       	out	0x05, r18	; 5
    1832:	25 b1       	in	r18, 0x05	; 5
    1834:	25 7f       	andi	r18, 0xF5	; 245
    1836:	25 b9       	out	0x05, r18	; 5
            SET_COLOR(pgm_read_byte(buffer + index + 25));
    1838:	9c 01       	movw	r18, r24
    183a:	27 5e       	subi	r18, 0xE7	; 231
    183c:	3f 4f       	sbci	r19, 0xFF	; 255
    183e:	e0 91 00 01 	lds	r30, 0x0100	; 0x800100 <_edata>
    1842:	f0 91 01 01 	lds	r31, 0x0101	; 0x800101 <_edata+0x1>
    1846:	e2 0f       	add	r30, r18
    1848:	f3 1f       	adc	r31, r19
    184a:	e4 91       	lpm	r30, Z
    184c:	2b b1       	in	r18, 0x0b	; 11
    184e:	64 e0       	ldi	r22, 0x04	; 4
    1850:	e6 9f       	mul	r30, r22
    1852:	f0 01       	movw	r30, r0
    1854:	11 24       	eor	r1, r1
    1856:	23 70       	andi	r18, 0x03	; 3
    1858:	e2 2b       	or	r30, r18
    185a:	eb b9       	out	0x0b, r30	; 11
            PWCLK_GCLK;
    185c:	25 b1       	in	r18, 0x05	; 5
    185e:	2a 60       	ori	r18, 0x0A	; 10
    1860:	25 b9       	out	0x05, r18	; 5
    1862:	25 b1       	in	r18, 0x05	; 5
    1864:	25 7f       	andi	r18, 0xF5	; 245
    1866:	25 b9       	out	0x05, r18	; 5
            PWCLK_GCLK;
    1868:	25 b1       	in	r18, 0x05	; 5
    186a:	2a 60       	ori	r18, 0x0A	; 10
    186c:	25 b9       	out	0x05, r18	; 5
    186e:	25 b1       	in	r18, 0x05	; 5
    1870:	25 7f       	andi	r18, 0xF5	; 245
    1872:	25 b9       	out	0x05, r18	; 5
            SET_COLOR(pgm_read_byte(buffer + index + 26));
    1874:	9c 01       	movw	r18, r24
    1876:	26 5e       	subi	r18, 0xE6	; 230
    1878:	3f 4f       	sbci	r19, 0xFF	; 255
    187a:	e0 91 00 01 	lds	r30, 0x0100	; 0x800100 <_edata>
    187e:	f0 91 01 01 	lds	r31, 0x0101	; 0x800101 <_edata+0x1>
    1882:	e2 0f       	add	r30, r18
    1884:	f3 1f       	adc	r31, r19
    1886:	e4 91       	lpm	r30, Z
    1888:	2b b1       	in	r18, 0x0b	; 11
    188a:	74 e0       	ldi	r23, 0x04	; 4
    188c:	e7 9f       	mul	r30, r23
    188e:	f0 01       	movw	r30, r0
    1890:	11 24       	eor	r1, r1
    1892:	23 70       	andi	r18, 0x03	; 3
    1894:	e2 2b       	or	r30, r18
    1896:	eb b9       	out	0x0b, r30	; 11
            PWCLK_GCLK;
    1898:	25 b1       	in	r18, 0x05	; 5
    189a:	2a 60       	ori	r18, 0x0A	; 10
    189c:	25 b9       	out	0x05, r18	; 5
    189e:	25 b1       	in	r18, 0x05	; 5
    18a0:	25 7f       	andi	r18, 0xF5	; 245
    18a2:	25 b9       	out	0x05, r18	; 5
            PWCLK_GCLK;
    18a4:	25 b1       	in	r18, 0x05	; 5
    18a6:	2a 60       	ori	r18, 0x0A	; 10
    18a8:	25 b9       	out	0x05, r18	; 5
    18aa:	25 b1       	in	r18, 0x05	; 5
    18ac:	25 7f       	andi	r18, 0xF5	; 245
    18ae:	25 b9       	out	0x05, r18	; 5
            SET_COLOR(pgm_read_byte(buffer + index + 27));
    18b0:	9c 01       	movw	r18, r24
    18b2:	25 5e       	subi	r18, 0xE5	; 229
    18b4:	3f 4f       	sbci	r19, 0xFF	; 255
    18b6:	e0 91 00 01 	lds	r30, 0x0100	; 0x800100 <_edata>
    18ba:	f0 91 01 01 	lds	r31, 0x0101	; 0x800101 <_edata+0x1>
    18be:	e2 0f       	add	r30, r18
    18c0:	f3 1f       	adc	r31, r19
    18c2:	e4 91       	lpm	r30, Z
    18c4:	2b b1       	in	r18, 0x0b	; 11
    18c6:	34 e0       	ldi	r19, 0x04	; 4
    18c8:	e3 9f       	mul	r30, r19
    18ca:	f0 01       	movw	r30, r0
    18cc:	11 24       	eor	r1, r1
    18ce:	23 70       	andi	r18, 0x03	; 3
    18d0:	e2 2b       	or	r30, r18
    18d2:	eb b9       	out	0x0b, r30	; 11
            PWCLK_GCLK;
    18d4:	25 b1       	in	r18, 0x05	; 5
    18d6:	2a 60       	ori	r18, 0x0A	; 10
    18d8:	25 b9       	out	0x05, r18	; 5
    18da:	25 b1       	in	r18, 0x05	; 5
    18dc:	25 7f       	andi	r18, 0xF5	; 245
    18de:	25 b9       	out	0x05, r18	; 5
            PWCLK_GCLK;
    18e0:	25 b1       	in	r18, 0x05	; 5
    18e2:	2a 60       	ori	r18, 0x0A	; 10
    18e4:	25 b9       	out	0x05, r18	; 5
    18e6:	25 b1       	in	r18, 0x05	; 5
    18e8:	25 7f       	andi	r18, 0xF5	; 245
    18ea:	25 b9       	out	0x05, r18	; 5
            SET_COLOR(pgm_read_byte(buffer + index + 28));
    18ec:	9c 01       	movw	r18, r24
    18ee:	24 5e       	subi	r18, 0xE4	; 228
    18f0:	3f 4f       	sbci	r19, 0xFF	; 255
    18f2:	e0 91 00 01 	lds	r30, 0x0100	; 0x800100 <_edata>
    18f6:	f0 91 01 01 	lds	r31, 0x0101	; 0x800101 <_edata+0x1>
    18fa:	e2 0f       	add	r30, r18
    18fc:	f3 1f       	adc	r31, r19
    18fe:	e4 91       	lpm	r30, Z
    1900:	2b b1       	in	r18, 0x0b	; 11
    1902:	64 e0       	ldi	r22, 0x04	; 4
    1904:	e6 9f       	mul	r30, r22
    1906:	f0 01       	movw	r30, r0
    1908:	11 24       	eor	r1, r1
    190a:	23 70       	andi	r18, 0x03	; 3
    190c:	e2 2b       	or	r30, r18
    190e:	eb b9       	out	0x0b, r30	; 11
            PWCLK_GCLK;
    1910:	25 b1       	in	r18, 0x05	; 5
    1912:	2a 60       	ori	r18, 0x0A	; 10
    1914:	25 b9       	out	0x05, r18	; 5
    1916:	25 b1       	in	r18, 0x05	; 5
    1918:	25 7f       	andi	r18, 0xF5	; 245
    191a:	25 b9       	out	0x05, r18	; 5
            PWCLK_GCLK;
    191c:	25 b1       	in	r18, 0x05	; 5
    191e:	2a 60       	ori	r18, 0x0A	; 10
    1920:	25 b9       	out	0x05, r18	; 5
    1922:	25 b1       	in	r18, 0x05	; 5
    1924:	25 7f       	andi	r18, 0xF5	; 245
    1926:	25 b9       	out	0x05, r18	; 5
            SET_COLOR(pgm_read_byte(buffer + index + 29));
    1928:	9c 01       	movw	r18, r24
    192a:	23 5e       	subi	r18, 0xE3	; 227
    192c:	3f 4f       	sbci	r19, 0xFF	; 255
    192e:	e0 91 00 01 	lds	r30, 0x0100	; 0x800100 <_edata>
    1932:	f0 91 01 01 	lds	r31, 0x0101	; 0x800101 <_edata+0x1>
    1936:	e2 0f       	add	r30, r18
    1938:	f3 1f       	adc	r31, r19
    193a:	e4 91       	lpm	r30, Z
    193c:	2b b1       	in	r18, 0x0b	; 11
    193e:	74 e0       	ldi	r23, 0x04	; 4
    1940:	e7 9f       	mul	r30, r23
    1942:	f0 01       	movw	r30, r0
    1944:	11 24       	eor	r1, r1
    1946:	23 70       	andi	r18, 0x03	; 3
    1948:	e2 2b       	or	r30, r18
    194a:	eb b9       	out	0x0b, r30	; 11
            PWCLK_GCLK;
    194c:	25 b1       	in	r18, 0x05	; 5
    194e:	2a 60       	ori	r18, 0x0A	; 10
    1950:	25 b9       	out	0x05, r18	; 5
    1952:	25 b1       	in	r18, 0x05	; 5
    1954:	25 7f       	andi	r18, 0xF5	; 245
    1956:	25 b9       	out	0x05, r18	; 5
            PWCLK_GCLK;
    1958:	25 b1       	in	r18, 0x05	; 5
    195a:	2a 60       	ori	r18, 0x0A	; 10
    195c:	25 b9       	out	0x05, r18	; 5
    195e:	25 b1       	in	r18, 0x05	; 5
    1960:	25 7f       	andi	r18, 0xF5	; 245
    1962:	25 b9       	out	0x05, r18	; 5
            SET_COLOR(pgm_read_byte(buffer + index + 30));
    1964:	9c 01       	movw	r18, r24
    1966:	22 5e       	subi	r18, 0xE2	; 226
    1968:	3f 4f       	sbci	r19, 0xFF	; 255
    196a:	e0 91 00 01 	lds	r30, 0x0100	; 0x800100 <_edata>
    196e:	f0 91 01 01 	lds	r31, 0x0101	; 0x800101 <_edata+0x1>
    1972:	e2 0f       	add	r30, r18
    1974:	f3 1f       	adc	r31, r19
    1976:	e4 91       	lpm	r30, Z
    1978:	2b b1       	in	r18, 0x0b	; 11
    197a:	34 e0       	ldi	r19, 0x04	; 4
    197c:	e3 9f       	mul	r30, r19
    197e:	f0 01       	movw	r30, r0
    1980:	11 24       	eor	r1, r1
    1982:	23 70       	andi	r18, 0x03	; 3
    1984:	e2 2b       	or	r30, r18
    1986:	eb b9       	out	0x0b, r30	; 11
            PWCLK_GCLK;
    1988:	25 b1       	in	r18, 0x05	; 5
    198a:	2a 60       	ori	r18, 0x0A	; 10
    198c:	25 b9       	out	0x05, r18	; 5
    198e:	25 b1       	in	r18, 0x05	; 5
    1990:	25 7f       	andi	r18, 0xF5	; 245
    1992:	25 b9       	out	0x05, r18	; 5
            PWCLK_GCLK;
    1994:	25 b1       	in	r18, 0x05	; 5
    1996:	2a 60       	ori	r18, 0x0A	; 10
    1998:	25 b9       	out	0x05, r18	; 5
    199a:	25 b1       	in	r18, 0x05	; 5
    199c:	25 7f       	andi	r18, 0xF5	; 245
    199e:	25 b9       	out	0x05, r18	; 5
            SET_COLOR(pgm_read_byte(buffer + index + 31));
    19a0:	9c 01       	movw	r18, r24
    19a2:	21 5e       	subi	r18, 0xE1	; 225
    19a4:	3f 4f       	sbci	r19, 0xFF	; 255
    19a6:	e0 91 00 01 	lds	r30, 0x0100	; 0x800100 <_edata>
    19aa:	f0 91 01 01 	lds	r31, 0x0101	; 0x800101 <_edata+0x1>
    19ae:	e2 0f       	add	r30, r18
    19b0:	f3 1f       	adc	r31, r19
    19b2:	e4 91       	lpm	r30, Z
    19b4:	2b b1       	in	r18, 0x0b	; 11
    19b6:	64 e0       	ldi	r22, 0x04	; 4
    19b8:	e6 9f       	mul	r30, r22
    19ba:	f0 01       	movw	r30, r0
    19bc:	11 24       	eor	r1, r1
    19be:	23 70       	andi	r18, 0x03	; 3
    19c0:	e2 2b       	or	r30, r18
    19c2:	eb b9       	out	0x0b, r30	; 11
            PWCLK_GCLK;
    19c4:	25 b1       	in	r18, 0x05	; 5
    19c6:	2a 60       	ori	r18, 0x0A	; 10
    19c8:	25 b9       	out	0x05, r18	; 5
    19ca:	25 b1       	in	r18, 0x05	; 5
    19cc:	25 7f       	andi	r18, 0xF5	; 245
    19ce:	25 b9       	out	0x05, r18	; 5
            PWCLK_GCLK;
    19d0:	25 b1       	in	r18, 0x05	; 5
    19d2:	2a 60       	ori	r18, 0x0A	; 10
    19d4:	25 b9       	out	0x05, r18	; 5
    19d6:	25 b1       	in	r18, 0x05	; 5
    19d8:	25 7f       	andi	r18, 0xF5	; 245
    19da:	25 b9       	out	0x05, r18	; 5

            // chip 4
            SET_COLOR(pgm_read_byte(buffer + index + 32));
    19dc:	9c 01       	movw	r18, r24
    19de:	20 5e       	subi	r18, 0xE0	; 224
    19e0:	3f 4f       	sbci	r19, 0xFF	; 255
    19e2:	e0 91 00 01 	lds	r30, 0x0100	; 0x800100 <_edata>
    19e6:	f0 91 01 01 	lds	r31, 0x0101	; 0x800101 <_edata+0x1>
    19ea:	e2 0f       	add	r30, r18
    19ec:	f3 1f       	adc	r31, r19
    19ee:	e4 91       	lpm	r30, Z
    19f0:	2b b1       	in	r18, 0x0b	; 11
    19f2:	74 e0       	ldi	r23, 0x04	; 4
    19f4:	e7 9f       	mul	r30, r23
    19f6:	f0 01       	movw	r30, r0
    19f8:	11 24       	eor	r1, r1
    19fa:	23 70       	andi	r18, 0x03	; 3
    19fc:	e2 2b       	or	r30, r18
    19fe:	eb b9       	out	0x0b, r30	; 11
            PWCLK_GCLK;
    1a00:	25 b1       	in	r18, 0x05	; 5
    1a02:	2a 60       	ori	r18, 0x0A	; 10
    1a04:	25 b9       	out	0x05, r18	; 5
    1a06:	25 b1       	in	r18, 0x05	; 5
    1a08:	25 7f       	andi	r18, 0xF5	; 245
    1a0a:	25 b9       	out	0x05, r18	; 5
            PWCLK_GCLK;
    1a0c:	25 b1       	in	r18, 0x05	; 5
    1a0e:	2a 60       	ori	r18, 0x0A	; 10
    1a10:	25 b9       	out	0x05, r18	; 5
    1a12:	25 b1       	in	r18, 0x05	; 5
    1a14:	25 7f       	andi	r18, 0xF5	; 245
    1a16:	25 b9       	out	0x05, r18	; 5
            SET_COLOR(pgm_read_byte(buffer + index + 33));
    1a18:	9c 01       	movw	r18, r24
    1a1a:	2f 5d       	subi	r18, 0xDF	; 223
    1a1c:	3f 4f       	sbci	r19, 0xFF	; 255
    1a1e:	e0 91 00 01 	lds	r30, 0x0100	; 0x800100 <_edata>
    1a22:	f0 91 01 01 	lds	r31, 0x0101	; 0x800101 <_edata+0x1>
    1a26:	e2 0f       	add	r30, r18
    1a28:	f3 1f       	adc	r31, r19
    1a2a:	e4 91       	lpm	r30, Z
    1a2c:	2b b1       	in	r18, 0x0b	; 11
    1a2e:	34 e0       	ldi	r19, 0x04	; 4
    1a30:	e3 9f       	mul	r30, r19
    1a32:	f0 01       	movw	r30, r0
    1a34:	11 24       	eor	r1, r1
    1a36:	23 70       	andi	r18, 0x03	; 3
    1a38:	e2 2b       	or	r30, r18
    1a3a:	eb b9       	out	0x0b, r30	; 11
            PWCLK_GCLK;
    1a3c:	25 b1       	in	r18, 0x05	; 5
    1a3e:	2a 60       	ori	r18, 0x0A	; 10
    1a40:	25 b9       	out	0x05, r18	; 5
    1a42:	25 b1       	in	r18, 0x05	; 5
    1a44:	25 7f       	andi	r18, 0xF5	; 245
    1a46:	25 b9       	out	0x05, r18	; 5
            PWCLK_GCLK;
    1a48:	25 b1       	in	r18, 0x05	; 5
    1a4a:	2a 60       	ori	r18, 0x0A	; 10
    1a4c:	25 b9       	out	0x05, r18	; 5
    1a4e:	25 b1       	in	r18, 0x05	; 5
    1a50:	25 7f       	andi	r18, 0xF5	; 245
    1a52:	25 b9       	out	0x05, r18	; 5
            SET_COLOR(pgm_read_byte(buffer + index + 34));
    1a54:	9c 01       	movw	r18, r24
    1a56:	2e 5d       	subi	r18, 0xDE	; 222
    1a58:	3f 4f       	sbci	r19, 0xFF	; 255
    1a5a:	e0 91 00 01 	lds	r30, 0x0100	; 0x800100 <_edata>
    1a5e:	f0 91 01 01 	lds	r31, 0x0101	; 0x800101 <_edata+0x1>
    1a62:	e2 0f       	add	r30, r18
    1a64:	f3 1f       	adc	r31, r19
    1a66:	e4 91       	lpm	r30, Z
    1a68:	2b b1       	in	r18, 0x0b	; 11
    1a6a:	64 e0       	ldi	r22, 0x04	; 4
    1a6c:	e6 9f       	mul	r30, r22
    1a6e:	f0 01       	movw	r30, r0
    1a70:	11 24       	eor	r1, r1
    1a72:	23 70       	andi	r18, 0x03	; 3
    1a74:	e2 2b       	or	r30, r18
    1a76:	eb b9       	out	0x0b, r30	; 11
            PWCLK_GCLK;
    1a78:	25 b1       	in	r18, 0x05	; 5
    1a7a:	2a 60       	ori	r18, 0x0A	; 10
    1a7c:	25 b9       	out	0x05, r18	; 5
    1a7e:	25 b1       	in	r18, 0x05	; 5
    1a80:	25 7f       	andi	r18, 0xF5	; 245
    1a82:	25 b9       	out	0x05, r18	; 5
            PWCLK_GCLK;
    1a84:	25 b1       	in	r18, 0x05	; 5
    1a86:	2a 60       	ori	r18, 0x0A	; 10
    1a88:	25 b9       	out	0x05, r18	; 5
    1a8a:	25 b1       	in	r18, 0x05	; 5
    1a8c:	25 7f       	andi	r18, 0xF5	; 245
    1a8e:	25 b9       	out	0x05, r18	; 5
            SET_COLOR(pgm_read_byte(buffer + index + 35));
    1a90:	9c 01       	movw	r18, r24
    1a92:	2d 5d       	subi	r18, 0xDD	; 221
    1a94:	3f 4f       	sbci	r19, 0xFF	; 255
    1a96:	e0 91 00 01 	lds	r30, 0x0100	; 0x800100 <_edata>
    1a9a:	f0 91 01 01 	lds	r31, 0x0101	; 0x800101 <_edata+0x1>
    1a9e:	e2 0f       	add	r30, r18
    1aa0:	f3 1f       	adc	r31, r19
    1aa2:	e4 91       	lpm	r30, Z
    1aa4:	2b b1       	in	r18, 0x0b	; 11
    1aa6:	74 e0       	ldi	r23, 0x04	; 4
    1aa8:	e7 9f       	mul	r30, r23
    1aaa:	f0 01       	movw	r30, r0
    1aac:	11 24       	eor	r1, r1
    1aae:	23 70       	andi	r18, 0x03	; 3
    1ab0:	e2 2b       	or	r30, r18
    1ab2:	eb b9       	out	0x0b, r30	; 11
            PWCLK_GCLK;
    1ab4:	25 b1       	in	r18, 0x05	; 5
    1ab6:	2a 60       	ori	r18, 0x0A	; 10
    1ab8:	25 b9       	out	0x05, r18	; 5
    1aba:	25 b1       	in	r18, 0x05	; 5
    1abc:	25 7f       	andi	r18, 0xF5	; 245
    1abe:	25 b9       	out	0x05, r18	; 5
            PWCLK_GCLK;
    1ac0:	25 b1       	in	r18, 0x05	; 5
    1ac2:	2a 60       	ori	r18, 0x0A	; 10
    1ac4:	25 b9       	out	0x05, r18	; 5
    1ac6:	25 b1       	in	r18, 0x05	; 5
    1ac8:	25 7f       	andi	r18, 0xF5	; 245
    1aca:	25 b9       	out	0x05, r18	; 5
            SET_COLOR(pgm_read_byte(buffer + index + 36));
    1acc:	9c 01       	movw	r18, r24
    1ace:	2c 5d       	subi	r18, 0xDC	; 220
    1ad0:	3f 4f       	sbci	r19, 0xFF	; 255
    1ad2:	e0 91 00 01 	lds	r30, 0x0100	; 0x800100 <_edata>
    1ad6:	f0 91 01 01 	lds	r31, 0x0101	; 0x800101 <_edata+0x1>
    1ada:	e2 0f       	add	r30, r18
    1adc:	f3 1f       	adc	r31, r19
    1ade:	e4 91       	lpm	r30, Z
    1ae0:	2b b1       	in	r18, 0x0b	; 11
    1ae2:	34 e0       	ldi	r19, 0x04	; 4
    1ae4:	e3 9f       	mul	r30, r19
    1ae6:	f0 01       	movw	r30, r0
    1ae8:	11 24       	eor	r1, r1
    1aea:	23 70       	andi	r18, 0x03	; 3
    1aec:	e2 2b       	or	r30, r18
    1aee:	eb b9       	out	0x0b, r30	; 11
            PWCLK_GCLK;
    1af0:	25 b1       	in	r18, 0x05	; 5
    1af2:	2a 60       	ori	r18, 0x0A	; 10
    1af4:	25 b9       	out	0x05, r18	; 5
    1af6:	25 b1       	in	r18, 0x05	; 5
    1af8:	25 7f       	andi	r18, 0xF5	; 245
    1afa:	25 b9       	out	0x05, r18	; 5
            PWCLK_GCLK;
    1afc:	25 b1       	in	r18, 0x05	; 5
    1afe:	2a 60       	ori	r18, 0x0A	; 10
    1b00:	25 b9       	out	0x05, r18	; 5
    1b02:	25 b1       	in	r18, 0x05	; 5
    1b04:	25 7f       	andi	r18, 0xF5	; 245
    1b06:	25 b9       	out	0x05, r18	; 5
            SET_COLOR(pgm_read_byte(buffer + index + 37));
    1b08:	9c 01       	movw	r18, r24
    1b0a:	2b 5d       	subi	r18, 0xDB	; 219
    1b0c:	3f 4f       	sbci	r19, 0xFF	; 255
    1b0e:	e0 91 00 01 	lds	r30, 0x0100	; 0x800100 <_edata>
    1b12:	f0 91 01 01 	lds	r31, 0x0101	; 0x800101 <_edata+0x1>
    1b16:	e2 0f       	add	r30, r18
    1b18:	f3 1f       	adc	r31, r19
    1b1a:	e4 91       	lpm	r30, Z
    1b1c:	2b b1       	in	r18, 0x0b	; 11
    1b1e:	64 e0       	ldi	r22, 0x04	; 4
    1b20:	e6 9f       	mul	r30, r22
    1b22:	f0 01       	movw	r30, r0
    1b24:	11 24       	eor	r1, r1
    1b26:	23 70       	andi	r18, 0x03	; 3
    1b28:	e2 2b       	or	r30, r18
    1b2a:	eb b9       	out	0x0b, r30	; 11
            PWCLK_GCLK;
    1b2c:	25 b1       	in	r18, 0x05	; 5
    1b2e:	2a 60       	ori	r18, 0x0A	; 10
    1b30:	25 b9       	out	0x05, r18	; 5
    1b32:	25 b1       	in	r18, 0x05	; 5
    1b34:	25 7f       	andi	r18, 0xF5	; 245
    1b36:	25 b9       	out	0x05, r18	; 5
            PWCLK_GCLK;
    1b38:	25 b1       	in	r18, 0x05	; 5
    1b3a:	2a 60       	ori	r18, 0x0A	; 10
    1b3c:	25 b9       	out	0x05, r18	; 5
    1b3e:	25 b1       	in	r18, 0x05	; 5
    1b40:	25 7f       	andi	r18, 0xF5	; 245
    1b42:	25 b9       	out	0x05, r18	; 5
            SET_COLOR(pgm_read_byte(buffer + index + 38));
    1b44:	9c 01       	movw	r18, r24
    1b46:	2a 5d       	subi	r18, 0xDA	; 218
    1b48:	3f 4f       	sbci	r19, 0xFF	; 255
    1b4a:	e0 91 00 01 	lds	r30, 0x0100	; 0x800100 <_edata>
    1b4e:	f0 91 01 01 	lds	r31, 0x0101	; 0x800101 <_edata+0x1>
    1b52:	e2 0f       	add	r30, r18
    1b54:	f3 1f       	adc	r31, r19
    1b56:	e4 91       	lpm	r30, Z
    1b58:	2b b1       	in	r18, 0x0b	; 11
    1b5a:	74 e0       	ldi	r23, 0x04	; 4
    1b5c:	e7 9f       	mul	r30, r23
    1b5e:	f0 01       	movw	r30, r0
    1b60:	11 24       	eor	r1, r1
    1b62:	23 70       	andi	r18, 0x03	; 3
    1b64:	e2 2b       	or	r30, r18
    1b66:	eb b9       	out	0x0b, r30	; 11
            PWCLK_GCLK;
    1b68:	25 b1       	in	r18, 0x05	; 5
    1b6a:	2a 60       	ori	r18, 0x0A	; 10
    1b6c:	25 b9       	out	0x05, r18	; 5
    1b6e:	25 b1       	in	r18, 0x05	; 5
    1b70:	25 7f       	andi	r18, 0xF5	; 245
    1b72:	25 b9       	out	0x05, r18	; 5
            PWCLK_GCLK;
    1b74:	25 b1       	in	r18, 0x05	; 5
    1b76:	2a 60       	ori	r18, 0x0A	; 10
    1b78:	25 b9       	out	0x05, r18	; 5
    1b7a:	25 b1       	in	r18, 0x05	; 5
    1b7c:	25 7f       	andi	r18, 0xF5	; 245
    1b7e:	25 b9       	out	0x05, r18	; 5
            SET_COLOR(pgm_read_byte(buffer + index + 39));
    1b80:	9c 01       	movw	r18, r24
    1b82:	29 5d       	subi	r18, 0xD9	; 217
    1b84:	3f 4f       	sbci	r19, 0xFF	; 255
    1b86:	e0 91 00 01 	lds	r30, 0x0100	; 0x800100 <_edata>
    1b8a:	f0 91 01 01 	lds	r31, 0x0101	; 0x800101 <_edata+0x1>
    1b8e:	e2 0f       	add	r30, r18
    1b90:	f3 1f       	adc	r31, r19
    1b92:	e4 91       	lpm	r30, Z
    1b94:	2b b1       	in	r18, 0x0b	; 11
    1b96:	34 e0       	ldi	r19, 0x04	; 4
    1b98:	e3 9f       	mul	r30, r19
    1b9a:	f0 01       	movw	r30, r0
    1b9c:	11 24       	eor	r1, r1
    1b9e:	23 70       	andi	r18, 0x03	; 3
    1ba0:	e2 2b       	or	r30, r18
    1ba2:	eb b9       	out	0x0b, r30	; 11
            PWCLK_GCLK;
    1ba4:	25 b1       	in	r18, 0x05	; 5
    1ba6:	2a 60       	ori	r18, 0x0A	; 10
    1ba8:	25 b9       	out	0x05, r18	; 5
    1baa:	25 b1       	in	r18, 0x05	; 5
    1bac:	25 7f       	andi	r18, 0xF5	; 245
    1bae:	25 b9       	out	0x05, r18	; 5
            PWCLK_GCLK;
    1bb0:	25 b1       	in	r18, 0x05	; 5
    1bb2:	2a 60       	ori	r18, 0x0A	; 10
    1bb4:	25 b9       	out	0x05, r18	; 5
    1bb6:	25 b1       	in	r18, 0x05	; 5
    1bb8:	25 7f       	andi	r18, 0xF5	; 245
    1bba:	25 b9       	out	0x05, r18	; 5

            // chip 5
            SET_COLOR(pgm_read_byte(buffer + index + 40));
    1bbc:	9c 01       	movw	r18, r24
    1bbe:	28 5d       	subi	r18, 0xD8	; 216
    1bc0:	3f 4f       	sbci	r19, 0xFF	; 255
    1bc2:	e0 91 00 01 	lds	r30, 0x0100	; 0x800100 <_edata>
    1bc6:	f0 91 01 01 	lds	r31, 0x0101	; 0x800101 <_edata+0x1>
    1bca:	e2 0f       	add	r30, r18
    1bcc:	f3 1f       	adc	r31, r19
    1bce:	e4 91       	lpm	r30, Z
    1bd0:	2b b1       	in	r18, 0x0b	; 11
    1bd2:	64 e0       	ldi	r22, 0x04	; 4
    1bd4:	e6 9f       	mul	r30, r22
    1bd6:	f0 01       	movw	r30, r0
    1bd8:	11 24       	eor	r1, r1
    1bda:	23 70       	andi	r18, 0x03	; 3
    1bdc:	e2 2b       	or	r30, r18
    1bde:	eb b9       	out	0x0b, r30	; 11
            PWCLK_GCLK;
    1be0:	25 b1       	in	r18, 0x05	; 5
    1be2:	2a 60       	ori	r18, 0x0A	; 10
    1be4:	25 b9       	out	0x05, r18	; 5
    1be6:	25 b1       	in	r18, 0x05	; 5
    1be8:	25 7f       	andi	r18, 0xF5	; 245
    1bea:	25 b9       	out	0x05, r18	; 5
            PWCLK_GCLK;
    1bec:	25 b1       	in	r18, 0x05	; 5
    1bee:	2a 60       	ori	r18, 0x0A	; 10
    1bf0:	25 b9       	out	0x05, r18	; 5
    1bf2:	25 b1       	in	r18, 0x05	; 5
    1bf4:	25 7f       	andi	r18, 0xF5	; 245
    1bf6:	25 b9       	out	0x05, r18	; 5
            SET_COLOR(pgm_read_byte(buffer + index + 41));
    1bf8:	9c 01       	movw	r18, r24
    1bfa:	27 5d       	subi	r18, 0xD7	; 215
    1bfc:	3f 4f       	sbci	r19, 0xFF	; 255
    1bfe:	e0 91 00 01 	lds	r30, 0x0100	; 0x800100 <_edata>
    1c02:	f0 91 01 01 	lds	r31, 0x0101	; 0x800101 <_edata+0x1>
    1c06:	e2 0f       	add	r30, r18
    1c08:	f3 1f       	adc	r31, r19
    1c0a:	e4 91       	lpm	r30, Z
    1c0c:	2b b1       	in	r18, 0x0b	; 11
    1c0e:	74 e0       	ldi	r23, 0x04	; 4
    1c10:	e7 9f       	mul	r30, r23
    1c12:	f0 01       	movw	r30, r0
    1c14:	11 24       	eor	r1, r1
    1c16:	23 70       	andi	r18, 0x03	; 3
    1c18:	e2 2b       	or	r30, r18
    1c1a:	eb b9       	out	0x0b, r30	; 11
            PWCLK_GCLK;
    1c1c:	25 b1       	in	r18, 0x05	; 5
    1c1e:	2a 60       	ori	r18, 0x0A	; 10
    1c20:	25 b9       	out	0x05, r18	; 5
    1c22:	25 b1       	in	r18, 0x05	; 5
    1c24:	25 7f       	andi	r18, 0xF5	; 245
    1c26:	25 b9       	out	0x05, r18	; 5
            PWCLK_GCLK;
    1c28:	25 b1       	in	r18, 0x05	; 5
    1c2a:	2a 60       	ori	r18, 0x0A	; 10
    1c2c:	25 b9       	out	0x05, r18	; 5
    1c2e:	25 b1       	in	r18, 0x05	; 5
    1c30:	25 7f       	andi	r18, 0xF5	; 245
    1c32:	25 b9       	out	0x05, r18	; 5
            SET_COLOR(pgm_read_byte(buffer + index + 42));
    1c34:	9c 01       	movw	r18, r24
    1c36:	26 5d       	subi	r18, 0xD6	; 214
    1c38:	3f 4f       	sbci	r19, 0xFF	; 255
    1c3a:	e0 91 00 01 	lds	r30, 0x0100	; 0x800100 <_edata>
    1c3e:	f0 91 01 01 	lds	r31, 0x0101	; 0x800101 <_edata+0x1>
    1c42:	e2 0f       	add	r30, r18
    1c44:	f3 1f       	adc	r31, r19
    1c46:	e4 91       	lpm	r30, Z
    1c48:	2b b1       	in	r18, 0x0b	; 11
    1c4a:	34 e0       	ldi	r19, 0x04	; 4
    1c4c:	e3 9f       	mul	r30, r19
    1c4e:	f0 01       	movw	r30, r0
    1c50:	11 24       	eor	r1, r1
    1c52:	23 70       	andi	r18, 0x03	; 3
    1c54:	e2 2b       	or	r30, r18
    1c56:	eb b9       	out	0x0b, r30	; 11
            PWCLK_GCLK;
    1c58:	25 b1       	in	r18, 0x05	; 5
    1c5a:	2a 60       	ori	r18, 0x0A	; 10
    1c5c:	25 b9       	out	0x05, r18	; 5
    1c5e:	25 b1       	in	r18, 0x05	; 5
    1c60:	25 7f       	andi	r18, 0xF5	; 245
    1c62:	25 b9       	out	0x05, r18	; 5
            PWCLK_GCLK;
    1c64:	25 b1       	in	r18, 0x05	; 5
    1c66:	2a 60       	ori	r18, 0x0A	; 10
    1c68:	25 b9       	out	0x05, r18	; 5
    1c6a:	25 b1       	in	r18, 0x05	; 5
    1c6c:	25 7f       	andi	r18, 0xF5	; 245
    1c6e:	25 b9       	out	0x05, r18	; 5
            SET_COLOR(pgm_read_byte(buffer + index + 43));
    1c70:	9c 01       	movw	r18, r24
    1c72:	25 5d       	subi	r18, 0xD5	; 213
    1c74:	3f 4f       	sbci	r19, 0xFF	; 255
    1c76:	e0 91 00 01 	lds	r30, 0x0100	; 0x800100 <_edata>
    1c7a:	f0 91 01 01 	lds	r31, 0x0101	; 0x800101 <_edata+0x1>
    1c7e:	e2 0f       	add	r30, r18
    1c80:	f3 1f       	adc	r31, r19
    1c82:	e4 91       	lpm	r30, Z
    1c84:	2b b1       	in	r18, 0x0b	; 11
    1c86:	64 e0       	ldi	r22, 0x04	; 4
    1c88:	e6 9f       	mul	r30, r22
    1c8a:	f0 01       	movw	r30, r0
    1c8c:	11 24       	eor	r1, r1
    1c8e:	23 70       	andi	r18, 0x03	; 3
    1c90:	e2 2b       	or	r30, r18
    1c92:	eb b9       	out	0x0b, r30	; 11
            PWCLK_GCLK;
    1c94:	25 b1       	in	r18, 0x05	; 5
    1c96:	2a 60       	ori	r18, 0x0A	; 10
    1c98:	25 b9       	out	0x05, r18	; 5
    1c9a:	25 b1       	in	r18, 0x05	; 5
    1c9c:	25 7f       	andi	r18, 0xF5	; 245
    1c9e:	25 b9       	out	0x05, r18	; 5
            PWCLK_GCLK;
    1ca0:	25 b1       	in	r18, 0x05	; 5
    1ca2:	2a 60       	ori	r18, 0x0A	; 10
    1ca4:	25 b9       	out	0x05, r18	; 5
    1ca6:	25 b1       	in	r18, 0x05	; 5
    1ca8:	25 7f       	andi	r18, 0xF5	; 245
    1caa:	25 b9       	out	0x05, r18	; 5
            SET_COLOR(pgm_read_byte(buffer + index + 44));
    1cac:	9c 01       	movw	r18, r24
    1cae:	24 5d       	subi	r18, 0xD4	; 212
    1cb0:	3f 4f       	sbci	r19, 0xFF	; 255
    1cb2:	e0 91 00 01 	lds	r30, 0x0100	; 0x800100 <_edata>
    1cb6:	f0 91 01 01 	lds	r31, 0x0101	; 0x800101 <_edata+0x1>
    1cba:	e2 0f       	add	r30, r18
    1cbc:	f3 1f       	adc	r31, r19
    1cbe:	e4 91       	lpm	r30, Z
    1cc0:	2b b1       	in	r18, 0x0b	; 11
    1cc2:	74 e0       	ldi	r23, 0x04	; 4
    1cc4:	e7 9f       	mul	r30, r23
    1cc6:	f0 01       	movw	r30, r0
    1cc8:	11 24       	eor	r1, r1
    1cca:	23 70       	andi	r18, 0x03	; 3
    1ccc:	e2 2b       	or	r30, r18
    1cce:	eb b9       	out	0x0b, r30	; 11
            PWCLK_GCLK;
    1cd0:	25 b1       	in	r18, 0x05	; 5
    1cd2:	2a 60       	ori	r18, 0x0A	; 10
    1cd4:	25 b9       	out	0x05, r18	; 5
    1cd6:	25 b1       	in	r18, 0x05	; 5
    1cd8:	25 7f       	andi	r18, 0xF5	; 245
    1cda:	25 b9       	out	0x05, r18	; 5
            PWCLK_GCLK;
    1cdc:	25 b1       	in	r18, 0x05	; 5
    1cde:	2a 60       	ori	r18, 0x0A	; 10
    1ce0:	25 b9       	out	0x05, r18	; 5
    1ce2:	25 b1       	in	r18, 0x05	; 5
    1ce4:	25 7f       	andi	r18, 0xF5	; 245
    1ce6:	25 b9       	out	0x05, r18	; 5
            SET_COLOR(pgm_read_byte(buffer + index + 45));
    1ce8:	9c 01       	movw	r18, r24
    1cea:	23 5d       	subi	r18, 0xD3	; 211
    1cec:	3f 4f       	sbci	r19, 0xFF	; 255
    1cee:	e0 91 00 01 	lds	r30, 0x0100	; 0x800100 <_edata>
    1cf2:	f0 91 01 01 	lds	r31, 0x0101	; 0x800101 <_edata+0x1>
    1cf6:	e2 0f       	add	r30, r18
    1cf8:	f3 1f       	adc	r31, r19
    1cfa:	e4 91       	lpm	r30, Z
    1cfc:	2b b1       	in	r18, 0x0b	; 11
    1cfe:	34 e0       	ldi	r19, 0x04	; 4
    1d00:	e3 9f       	mul	r30, r19
    1d02:	f0 01       	movw	r30, r0
    1d04:	11 24       	eor	r1, r1
    1d06:	23 70       	andi	r18, 0x03	; 3
    1d08:	e2 2b       	or	r30, r18
    1d0a:	eb b9       	out	0x0b, r30	; 11
            PWCLK_GCLK;
    1d0c:	25 b1       	in	r18, 0x05	; 5
    1d0e:	2a 60       	ori	r18, 0x0A	; 10
    1d10:	25 b9       	out	0x05, r18	; 5
    1d12:	25 b1       	in	r18, 0x05	; 5
    1d14:	25 7f       	andi	r18, 0xF5	; 245
    1d16:	25 b9       	out	0x05, r18	; 5
            PWCLK_GCLK;
    1d18:	25 b1       	in	r18, 0x05	; 5
    1d1a:	2a 60       	ori	r18, 0x0A	; 10
    1d1c:	25 b9       	out	0x05, r18	; 5
    1d1e:	25 b1       	in	r18, 0x05	; 5
    1d20:	25 7f       	andi	r18, 0xF5	; 245
    1d22:	25 b9       	out	0x05, r18	; 5
            SET_COLOR(pgm_read_byte(buffer + index + 46));
    1d24:	9c 01       	movw	r18, r24
    1d26:	22 5d       	subi	r18, 0xD2	; 210
    1d28:	3f 4f       	sbci	r19, 0xFF	; 255
    1d2a:	e0 91 00 01 	lds	r30, 0x0100	; 0x800100 <_edata>
    1d2e:	f0 91 01 01 	lds	r31, 0x0101	; 0x800101 <_edata+0x1>
    1d32:	e2 0f       	add	r30, r18
    1d34:	f3 1f       	adc	r31, r19
    1d36:	e4 91       	lpm	r30, Z
    1d38:	2b b1       	in	r18, 0x0b	; 11
    1d3a:	64 e0       	ldi	r22, 0x04	; 4
    1d3c:	e6 9f       	mul	r30, r22
    1d3e:	f0 01       	movw	r30, r0
    1d40:	11 24       	eor	r1, r1
    1d42:	23 70       	andi	r18, 0x03	; 3
    1d44:	e2 2b       	or	r30, r18
    1d46:	eb b9       	out	0x0b, r30	; 11
            PWCLK_GCLK;
    1d48:	25 b1       	in	r18, 0x05	; 5
    1d4a:	2a 60       	ori	r18, 0x0A	; 10
    1d4c:	25 b9       	out	0x05, r18	; 5
    1d4e:	25 b1       	in	r18, 0x05	; 5
    1d50:	25 7f       	andi	r18, 0xF5	; 245
    1d52:	25 b9       	out	0x05, r18	; 5
            PWCLK_GCLK;
    1d54:	25 b1       	in	r18, 0x05	; 5
    1d56:	2a 60       	ori	r18, 0x0A	; 10
    1d58:	25 b9       	out	0x05, r18	; 5
    1d5a:	25 b1       	in	r18, 0x05	; 5
    1d5c:	25 7f       	andi	r18, 0xF5	; 245
    1d5e:	25 b9       	out	0x05, r18	; 5
            SET_COLOR(pgm_read_byte(buffer + index + 47));
    1d60:	9c 01       	movw	r18, r24
    1d62:	21 5d       	subi	r18, 0xD1	; 209
    1d64:	3f 4f       	sbci	r19, 0xFF	; 255
    1d66:	e0 91 00 01 	lds	r30, 0x0100	; 0x800100 <_edata>
    1d6a:	f0 91 01 01 	lds	r31, 0x0101	; 0x800101 <_edata+0x1>
    1d6e:	e2 0f       	add	r30, r18
    1d70:	f3 1f       	adc	r31, r19
    1d72:	e4 91       	lpm	r30, Z
    1d74:	2b b1       	in	r18, 0x0b	; 11
    1d76:	74 e0       	ldi	r23, 0x04	; 4
    1d78:	e7 9f       	mul	r30, r23
    1d7a:	f0 01       	movw	r30, r0
    1d7c:	11 24       	eor	r1, r1
    1d7e:	23 70       	andi	r18, 0x03	; 3
    1d80:	e2 2b       	or	r30, r18
    1d82:	eb b9       	out	0x0b, r30	; 11
            PWCLK_GCLK;
    1d84:	25 b1       	in	r18, 0x05	; 5
    1d86:	2a 60       	ori	r18, 0x0A	; 10
    1d88:	25 b9       	out	0x05, r18	; 5
    1d8a:	25 b1       	in	r18, 0x05	; 5
    1d8c:	25 7f       	andi	r18, 0xF5	; 245
    1d8e:	25 b9       	out	0x05, r18	; 5
            PWCLK_GCLK;
    1d90:	25 b1       	in	r18, 0x05	; 5
    1d92:	2a 60       	ori	r18, 0x0A	; 10
    1d94:	25 b9       	out	0x05, r18	; 5
    1d96:	25 b1       	in	r18, 0x05	; 5
    1d98:	25 7f       	andi	r18, 0xF5	; 245
    1d9a:	25 b9       	out	0x05, r18	; 5

            // chip 6
            SET_COLOR(pgm_read_byte(buffer + index + 48));
    1d9c:	9c 01       	movw	r18, r24
    1d9e:	20 5d       	subi	r18, 0xD0	; 208
    1da0:	3f 4f       	sbci	r19, 0xFF	; 255
    1da2:	e0 91 00 01 	lds	r30, 0x0100	; 0x800100 <_edata>
    1da6:	f0 91 01 01 	lds	r31, 0x0101	; 0x800101 <_edata+0x1>
    1daa:	e2 0f       	add	r30, r18
    1dac:	f3 1f       	adc	r31, r19
    1dae:	e4 91       	lpm	r30, Z
    1db0:	2b b1       	in	r18, 0x0b	; 11
    1db2:	34 e0       	ldi	r19, 0x04	; 4
    1db4:	e3 9f       	mul	r30, r19
    1db6:	f0 01       	movw	r30, r0
    1db8:	11 24       	eor	r1, r1
    1dba:	23 70       	andi	r18, 0x03	; 3
    1dbc:	e2 2b       	or	r30, r18
    1dbe:	eb b9       	out	0x0b, r30	; 11
            PWCLK_GCLK;
    1dc0:	25 b1       	in	r18, 0x05	; 5
    1dc2:	2a 60       	ori	r18, 0x0A	; 10
    1dc4:	25 b9       	out	0x05, r18	; 5
    1dc6:	25 b1       	in	r18, 0x05	; 5
    1dc8:	25 7f       	andi	r18, 0xF5	; 245
    1dca:	25 b9       	out	0x05, r18	; 5
            PWCLK_GCLK;
    1dcc:	25 b1       	in	r18, 0x05	; 5
    1dce:	2a 60       	ori	r18, 0x0A	; 10
    1dd0:	25 b9       	out	0x05, r18	; 5
    1dd2:	25 b1       	in	r18, 0x05	; 5
    1dd4:	25 7f       	andi	r18, 0xF5	; 245
    1dd6:	25 b9       	out	0x05, r18	; 5
            SET_COLOR(pgm_read_byte(buffer + index + 49));
    1dd8:	9c 01       	movw	r18, r24
    1dda:	2f 5c       	subi	r18, 0xCF	; 207
    1ddc:	3f 4f       	sbci	r19, 0xFF	; 255
    1dde:	e0 91 00 01 	lds	r30, 0x0100	; 0x800100 <_edata>
    1de2:	f0 91 01 01 	lds	r31, 0x0101	; 0x800101 <_edata+0x1>
    1de6:	e2 0f       	add	r30, r18
    1de8:	f3 1f       	adc	r31, r19
    1dea:	e4 91       	lpm	r30, Z
    1dec:	2b b1       	in	r18, 0x0b	; 11
    1dee:	64 e0       	ldi	r22, 0x04	; 4
    1df0:	e6 9f       	mul	r30, r22
    1df2:	f0 01       	movw	r30, r0
    1df4:	11 24       	eor	r1, r1
    1df6:	23 70       	andi	r18, 0x03	; 3
    1df8:	e2 2b       	or	r30, r18
    1dfa:	eb b9       	out	0x0b, r30	; 11
            PWCLK_GCLK;
    1dfc:	25 b1       	in	r18, 0x05	; 5
    1dfe:	2a 60       	ori	r18, 0x0A	; 10
    1e00:	25 b9       	out	0x05, r18	; 5
    1e02:	25 b1       	in	r18, 0x05	; 5
    1e04:	25 7f       	andi	r18, 0xF5	; 245
    1e06:	25 b9       	out	0x05, r18	; 5
            PWCLK_GCLK;
    1e08:	25 b1       	in	r18, 0x05	; 5
    1e0a:	2a 60       	ori	r18, 0x0A	; 10
    1e0c:	25 b9       	out	0x05, r18	; 5
    1e0e:	25 b1       	in	r18, 0x05	; 5
    1e10:	25 7f       	andi	r18, 0xF5	; 245
    1e12:	25 b9       	out	0x05, r18	; 5
            SET_COLOR(pgm_read_byte(buffer + index + 50));
    1e14:	9c 01       	movw	r18, r24
    1e16:	2e 5c       	subi	r18, 0xCE	; 206
    1e18:	3f 4f       	sbci	r19, 0xFF	; 255
    1e1a:	e0 91 00 01 	lds	r30, 0x0100	; 0x800100 <_edata>
    1e1e:	f0 91 01 01 	lds	r31, 0x0101	; 0x800101 <_edata+0x1>
    1e22:	e2 0f       	add	r30, r18
    1e24:	f3 1f       	adc	r31, r19
    1e26:	e4 91       	lpm	r30, Z
    1e28:	2b b1       	in	r18, 0x0b	; 11
    1e2a:	74 e0       	ldi	r23, 0x04	; 4
    1e2c:	e7 9f       	mul	r30, r23
    1e2e:	f0 01       	movw	r30, r0
    1e30:	11 24       	eor	r1, r1
    1e32:	23 70       	andi	r18, 0x03	; 3
    1e34:	e2 2b       	or	r30, r18
    1e36:	eb b9       	out	0x0b, r30	; 11
            PWCLK_GCLK;
    1e38:	25 b1       	in	r18, 0x05	; 5
    1e3a:	2a 60       	ori	r18, 0x0A	; 10
    1e3c:	25 b9       	out	0x05, r18	; 5
    1e3e:	25 b1       	in	r18, 0x05	; 5
    1e40:	25 7f       	andi	r18, 0xF5	; 245
    1e42:	25 b9       	out	0x05, r18	; 5
            PWCLK_GCLK;
    1e44:	25 b1       	in	r18, 0x05	; 5
    1e46:	2a 60       	ori	r18, 0x0A	; 10
    1e48:	25 b9       	out	0x05, r18	; 5
    1e4a:	25 b1       	in	r18, 0x05	; 5
    1e4c:	25 7f       	andi	r18, 0xF5	; 245
    1e4e:	25 b9       	out	0x05, r18	; 5
            SET_COLOR(pgm_read_byte(buffer + index + 51));
    1e50:	9c 01       	movw	r18, r24
    1e52:	2d 5c       	subi	r18, 0xCD	; 205
    1e54:	3f 4f       	sbci	r19, 0xFF	; 255
    1e56:	e0 91 00 01 	lds	r30, 0x0100	; 0x800100 <_edata>
    1e5a:	f0 91 01 01 	lds	r31, 0x0101	; 0x800101 <_edata+0x1>
    1e5e:	e2 0f       	add	r30, r18
    1e60:	f3 1f       	adc	r31, r19
    1e62:	e4 91       	lpm	r30, Z
    1e64:	2b b1       	in	r18, 0x0b	; 11
    1e66:	34 e0       	ldi	r19, 0x04	; 4
    1e68:	e3 9f       	mul	r30, r19
    1e6a:	f0 01       	movw	r30, r0
    1e6c:	11 24       	eor	r1, r1
    1e6e:	23 70       	andi	r18, 0x03	; 3
    1e70:	e2 2b       	or	r30, r18
    1e72:	eb b9       	out	0x0b, r30	; 11
            PWCLK_GCLK;
    1e74:	25 b1       	in	r18, 0x05	; 5
    1e76:	2a 60       	ori	r18, 0x0A	; 10
    1e78:	25 b9       	out	0x05, r18	; 5
    1e7a:	25 b1       	in	r18, 0x05	; 5
    1e7c:	25 7f       	andi	r18, 0xF5	; 245
    1e7e:	25 b9       	out	0x05, r18	; 5
            PWCLK_GCLK;
    1e80:	25 b1       	in	r18, 0x05	; 5
    1e82:	2a 60       	ori	r18, 0x0A	; 10
    1e84:	25 b9       	out	0x05, r18	; 5
    1e86:	25 b1       	in	r18, 0x05	; 5
    1e88:	25 7f       	andi	r18, 0xF5	; 245
    1e8a:	25 b9       	out	0x05, r18	; 5
            SET_COLOR(pgm_read_byte(buffer + index + 52));
    1e8c:	9c 01       	movw	r18, r24
    1e8e:	2c 5c       	subi	r18, 0xCC	; 204
    1e90:	3f 4f       	sbci	r19, 0xFF	; 255
    1e92:	e0 91 00 01 	lds	r30, 0x0100	; 0x800100 <_edata>
    1e96:	f0 91 01 01 	lds	r31, 0x0101	; 0x800101 <_edata+0x1>
    1e9a:	e2 0f       	add	r30, r18
    1e9c:	f3 1f       	adc	r31, r19
    1e9e:	e4 91       	lpm	r30, Z
    1ea0:	2b b1       	in	r18, 0x0b	; 11
    1ea2:	64 e0       	ldi	r22, 0x04	; 4
    1ea4:	e6 9f       	mul	r30, r22
    1ea6:	f0 01       	movw	r30, r0
    1ea8:	11 24       	eor	r1, r1
    1eaa:	23 70       	andi	r18, 0x03	; 3
    1eac:	e2 2b       	or	r30, r18
    1eae:	eb b9       	out	0x0b, r30	; 11
            PWCLK_GCLK;
    1eb0:	25 b1       	in	r18, 0x05	; 5
    1eb2:	2a 60       	ori	r18, 0x0A	; 10
    1eb4:	25 b9       	out	0x05, r18	; 5
    1eb6:	25 b1       	in	r18, 0x05	; 5
    1eb8:	25 7f       	andi	r18, 0xF5	; 245
    1eba:	25 b9       	out	0x05, r18	; 5
            PWCLK_GCLK;
    1ebc:	25 b1       	in	r18, 0x05	; 5
    1ebe:	2a 60       	ori	r18, 0x0A	; 10
    1ec0:	25 b9       	out	0x05, r18	; 5
    1ec2:	25 b1       	in	r18, 0x05	; 5
    1ec4:	25 7f       	andi	r18, 0xF5	; 245
    1ec6:	25 b9       	out	0x05, r18	; 5
            SET_COLOR(pgm_read_byte(buffer + index + 53));
    1ec8:	9c 01       	movw	r18, r24
    1eca:	2b 5c       	subi	r18, 0xCB	; 203
    1ecc:	3f 4f       	sbci	r19, 0xFF	; 255
    1ece:	e0 91 00 01 	lds	r30, 0x0100	; 0x800100 <_edata>
    1ed2:	f0 91 01 01 	lds	r31, 0x0101	; 0x800101 <_edata+0x1>
    1ed6:	e2 0f       	add	r30, r18
    1ed8:	f3 1f       	adc	r31, r19
    1eda:	e4 91       	lpm	r30, Z
    1edc:	2b b1       	in	r18, 0x0b	; 11
    1ede:	74 e0       	ldi	r23, 0x04	; 4
    1ee0:	e7 9f       	mul	r30, r23
    1ee2:	f0 01       	movw	r30, r0
    1ee4:	11 24       	eor	r1, r1
    1ee6:	23 70       	andi	r18, 0x03	; 3
    1ee8:	e2 2b       	or	r30, r18
    1eea:	eb b9       	out	0x0b, r30	; 11
            PWCLK_GCLK;
    1eec:	25 b1       	in	r18, 0x05	; 5
    1eee:	2a 60       	ori	r18, 0x0A	; 10
    1ef0:	25 b9       	out	0x05, r18	; 5
    1ef2:	25 b1       	in	r18, 0x05	; 5
    1ef4:	25 7f       	andi	r18, 0xF5	; 245
    1ef6:	25 b9       	out	0x05, r18	; 5
            PWCLK_GCLK;
    1ef8:	25 b1       	in	r18, 0x05	; 5
    1efa:	2a 60       	ori	r18, 0x0A	; 10
    1efc:	25 b9       	out	0x05, r18	; 5
    1efe:	25 b1       	in	r18, 0x05	; 5
    1f00:	25 7f       	andi	r18, 0xF5	; 245
    1f02:	25 b9       	out	0x05, r18	; 5
            SET_COLOR(pgm_read_byte(buffer + index + 54));
    1f04:	9c 01       	movw	r18, r24
    1f06:	2a 5c       	subi	r18, 0xCA	; 202
    1f08:	3f 4f       	sbci	r19, 0xFF	; 255
    1f0a:	e0 91 00 01 	lds	r30, 0x0100	; 0x800100 <_edata>
    1f0e:	f0 91 01 01 	lds	r31, 0x0101	; 0x800101 <_edata+0x1>
    1f12:	e2 0f       	add	r30, r18
    1f14:	f3 1f       	adc	r31, r19
    1f16:	e4 91       	lpm	r30, Z
    1f18:	2b b1       	in	r18, 0x0b	; 11
    1f1a:	34 e0       	ldi	r19, 0x04	; 4
    1f1c:	e3 9f       	mul	r30, r19
    1f1e:	f0 01       	movw	r30, r0
    1f20:	11 24       	eor	r1, r1
    1f22:	23 70       	andi	r18, 0x03	; 3
    1f24:	e2 2b       	or	r30, r18
    1f26:	eb b9       	out	0x0b, r30	; 11
            PWCLK_GCLK;
    1f28:	25 b1       	in	r18, 0x05	; 5
    1f2a:	2a 60       	ori	r18, 0x0A	; 10
    1f2c:	25 b9       	out	0x05, r18	; 5
    1f2e:	25 b1       	in	r18, 0x05	; 5
    1f30:	25 7f       	andi	r18, 0xF5	; 245
    1f32:	25 b9       	out	0x05, r18	; 5
            PWCLK_GCLK;
    1f34:	25 b1       	in	r18, 0x05	; 5
    1f36:	2a 60       	ori	r18, 0x0A	; 10
    1f38:	25 b9       	out	0x05, r18	; 5
    1f3a:	25 b1       	in	r18, 0x05	; 5
    1f3c:	25 7f       	andi	r18, 0xF5	; 245
    1f3e:	25 b9       	out	0x05, r18	; 5
            SET_COLOR(pgm_read_byte(buffer + index + 55));
    1f40:	9c 01       	movw	r18, r24
    1f42:	29 5c       	subi	r18, 0xC9	; 201
    1f44:	3f 4f       	sbci	r19, 0xFF	; 255
    1f46:	e0 91 00 01 	lds	r30, 0x0100	; 0x800100 <_edata>
    1f4a:	f0 91 01 01 	lds	r31, 0x0101	; 0x800101 <_edata+0x1>
    1f4e:	e2 0f       	add	r30, r18
    1f50:	f3 1f       	adc	r31, r19
    1f52:	e4 91       	lpm	r30, Z
    1f54:	2b b1       	in	r18, 0x0b	; 11
    1f56:	64 e0       	ldi	r22, 0x04	; 4
    1f58:	e6 9f       	mul	r30, r22
    1f5a:	f0 01       	movw	r30, r0
    1f5c:	11 24       	eor	r1, r1
    1f5e:	23 70       	andi	r18, 0x03	; 3
    1f60:	e2 2b       	or	r30, r18
    1f62:	eb b9       	out	0x0b, r30	; 11
            PWCLK_GCLK;
    1f64:	25 b1       	in	r18, 0x05	; 5
    1f66:	2a 60       	ori	r18, 0x0A	; 10
    1f68:	25 b9       	out	0x05, r18	; 5
    1f6a:	25 b1       	in	r18, 0x05	; 5
    1f6c:	25 7f       	andi	r18, 0xF5	; 245
    1f6e:	25 b9       	out	0x05, r18	; 5
            PWCLK_GCLK;
    1f70:	25 b1       	in	r18, 0x05	; 5
    1f72:	2a 60       	ori	r18, 0x0A	; 10
    1f74:	25 b9       	out	0x05, r18	; 5
    1f76:	25 b1       	in	r18, 0x05	; 5
    1f78:	25 7f       	andi	r18, 0xF5	; 245
    1f7a:	25 b9       	out	0x05, r18	; 5

            // chip 7
            SET_COLOR(pgm_read_byte(buffer + index + 56));
    1f7c:	9c 01       	movw	r18, r24
    1f7e:	28 5c       	subi	r18, 0xC8	; 200
    1f80:	3f 4f       	sbci	r19, 0xFF	; 255
    1f82:	e0 91 00 01 	lds	r30, 0x0100	; 0x800100 <_edata>
    1f86:	f0 91 01 01 	lds	r31, 0x0101	; 0x800101 <_edata+0x1>
    1f8a:	e2 0f       	add	r30, r18
    1f8c:	f3 1f       	adc	r31, r19
    1f8e:	e4 91       	lpm	r30, Z
    1f90:	2b b1       	in	r18, 0x0b	; 11
    1f92:	74 e0       	ldi	r23, 0x04	; 4
    1f94:	e7 9f       	mul	r30, r23
    1f96:	f0 01       	movw	r30, r0
    1f98:	11 24       	eor	r1, r1
    1f9a:	23 70       	andi	r18, 0x03	; 3
    1f9c:	e2 2b       	or	r30, r18
    1f9e:	eb b9       	out	0x0b, r30	; 11
            PWCLK_GCLK;
    1fa0:	25 b1       	in	r18, 0x05	; 5
    1fa2:	2a 60       	ori	r18, 0x0A	; 10
    1fa4:	25 b9       	out	0x05, r18	; 5
    1fa6:	25 b1       	in	r18, 0x05	; 5
    1fa8:	25 7f       	andi	r18, 0xF5	; 245
    1faa:	25 b9       	out	0x05, r18	; 5
            PWCLK_GCLK;
    1fac:	25 b1       	in	r18, 0x05	; 5
    1fae:	2a 60       	ori	r18, 0x0A	; 10
    1fb0:	25 b9       	out	0x05, r18	; 5
    1fb2:	25 b1       	in	r18, 0x05	; 5
    1fb4:	25 7f       	andi	r18, 0xF5	; 245
    1fb6:	25 b9       	out	0x05, r18	; 5
            SET_COLOR(pgm_read_byte(buffer + index + 57));
    1fb8:	9c 01       	movw	r18, r24
    1fba:	27 5c       	subi	r18, 0xC7	; 199
    1fbc:	3f 4f       	sbci	r19, 0xFF	; 255
    1fbe:	e0 91 00 01 	lds	r30, 0x0100	; 0x800100 <_edata>
    1fc2:	f0 91 01 01 	lds	r31, 0x0101	; 0x800101 <_edata+0x1>
    1fc6:	e2 0f       	add	r30, r18
    1fc8:	f3 1f       	adc	r31, r19
    1fca:	e4 91       	lpm	r30, Z
    1fcc:	2b b1       	in	r18, 0x0b	; 11
    1fce:	34 e0       	ldi	r19, 0x04	; 4
    1fd0:	e3 9f       	mul	r30, r19
    1fd2:	f0 01       	movw	r30, r0
    1fd4:	11 24       	eor	r1, r1
    1fd6:	23 70       	andi	r18, 0x03	; 3
    1fd8:	e2 2b       	or	r30, r18
    1fda:	eb b9       	out	0x0b, r30	; 11
            PWCLK_GCLK;
    1fdc:	25 b1       	in	r18, 0x05	; 5
    1fde:	2a 60       	ori	r18, 0x0A	; 10
    1fe0:	25 b9       	out	0x05, r18	; 5
    1fe2:	25 b1       	in	r18, 0x05	; 5
    1fe4:	25 7f       	andi	r18, 0xF5	; 245
    1fe6:	25 b9       	out	0x05, r18	; 5
            PWCLK_GCLK;
    1fe8:	25 b1       	in	r18, 0x05	; 5
    1fea:	2a 60       	ori	r18, 0x0A	; 10
    1fec:	25 b9       	out	0x05, r18	; 5
    1fee:	25 b1       	in	r18, 0x05	; 5
    1ff0:	25 7f       	andi	r18, 0xF5	; 245
    1ff2:	25 b9       	out	0x05, r18	; 5
            SET_COLOR(pgm_read_byte(buffer + index + 58));
    1ff4:	9c 01       	movw	r18, r24
    1ff6:	26 5c       	subi	r18, 0xC6	; 198
    1ff8:	3f 4f       	sbci	r19, 0xFF	; 255
    1ffa:	e0 91 00 01 	lds	r30, 0x0100	; 0x800100 <_edata>
    1ffe:	f0 91 01 01 	lds	r31, 0x0101	; 0x800101 <_edata+0x1>
    2002:	e2 0f       	add	r30, r18
    2004:	f3 1f       	adc	r31, r19
    2006:	e4 91       	lpm	r30, Z
    2008:	2b b1       	in	r18, 0x0b	; 11
    200a:	64 e0       	ldi	r22, 0x04	; 4
    200c:	e6 9f       	mul	r30, r22
    200e:	f0 01       	movw	r30, r0
    2010:	11 24       	eor	r1, r1
    2012:	23 70       	andi	r18, 0x03	; 3
    2014:	e2 2b       	or	r30, r18
    2016:	eb b9       	out	0x0b, r30	; 11
            PWCLK_GCLK;
    2018:	25 b1       	in	r18, 0x05	; 5
    201a:	2a 60       	ori	r18, 0x0A	; 10
    201c:	25 b9       	out	0x05, r18	; 5
    201e:	25 b1       	in	r18, 0x05	; 5
    2020:	25 7f       	andi	r18, 0xF5	; 245
    2022:	25 b9       	out	0x05, r18	; 5
            PWCLK_GCLK;
    2024:	25 b1       	in	r18, 0x05	; 5
    2026:	2a 60       	ori	r18, 0x0A	; 10
    2028:	25 b9       	out	0x05, r18	; 5
    202a:	25 b1       	in	r18, 0x05	; 5
    202c:	25 7f       	andi	r18, 0xF5	; 245
    202e:	25 b9       	out	0x05, r18	; 5
            SET_COLOR(pgm_read_byte(buffer + index + 59));
    2030:	9c 01       	movw	r18, r24
    2032:	25 5c       	subi	r18, 0xC5	; 197
    2034:	3f 4f       	sbci	r19, 0xFF	; 255
    2036:	e0 91 00 01 	lds	r30, 0x0100	; 0x800100 <_edata>
    203a:	f0 91 01 01 	lds	r31, 0x0101	; 0x800101 <_edata+0x1>
    203e:	e2 0f       	add	r30, r18
    2040:	f3 1f       	adc	r31, r19
    2042:	e4 91       	lpm	r30, Z
    2044:	2b b1       	in	r18, 0x0b	; 11
    2046:	74 e0       	ldi	r23, 0x04	; 4
    2048:	e7 9f       	mul	r30, r23
    204a:	f0 01       	movw	r30, r0
    204c:	11 24       	eor	r1, r1
    204e:	23 70       	andi	r18, 0x03	; 3
    2050:	e2 2b       	or	r30, r18
    2052:	eb b9       	out	0x0b, r30	; 11
            PWCLK_GCLK;
    2054:	25 b1       	in	r18, 0x05	; 5
    2056:	2a 60       	ori	r18, 0x0A	; 10
    2058:	25 b9       	out	0x05, r18	; 5
    205a:	25 b1       	in	r18, 0x05	; 5
    205c:	25 7f       	andi	r18, 0xF5	; 245
    205e:	25 b9       	out	0x05, r18	; 5
            PWCLK_GCLK;
    2060:	25 b1       	in	r18, 0x05	; 5
    2062:	2a 60       	ori	r18, 0x0A	; 10
    2064:	25 b9       	out	0x05, r18	; 5
    2066:	25 b1       	in	r18, 0x05	; 5
    2068:	25 7f       	andi	r18, 0xF5	; 245
    206a:	25 b9       	out	0x05, r18	; 5
            SET_COLOR(pgm_read_byte(buffer + index + 60));
    206c:	9c 01       	movw	r18, r24
    206e:	24 5c       	subi	r18, 0xC4	; 196
    2070:	3f 4f       	sbci	r19, 0xFF	; 255
    2072:	e0 91 00 01 	lds	r30, 0x0100	; 0x800100 <_edata>
    2076:	f0 91 01 01 	lds	r31, 0x0101	; 0x800101 <_edata+0x1>
    207a:	e2 0f       	add	r30, r18
    207c:	f3 1f       	adc	r31, r19
    207e:	e4 91       	lpm	r30, Z
    2080:	2b b1       	in	r18, 0x0b	; 11
    2082:	34 e0       	ldi	r19, 0x04	; 4
    2084:	e3 9f       	mul	r30, r19
    2086:	f0 01       	movw	r30, r0
    2088:	11 24       	eor	r1, r1
    208a:	23 70       	andi	r18, 0x03	; 3
    208c:	e2 2b       	or	r30, r18
    208e:	eb b9       	out	0x0b, r30	; 11
            PWCLK_GCLK;
    2090:	25 b1       	in	r18, 0x05	; 5
    2092:	2a 60       	ori	r18, 0x0A	; 10
    2094:	25 b9       	out	0x05, r18	; 5
    2096:	25 b1       	in	r18, 0x05	; 5
    2098:	25 7f       	andi	r18, 0xF5	; 245
    209a:	25 b9       	out	0x05, r18	; 5
            PWCLK_GCLK;
    209c:	25 b1       	in	r18, 0x05	; 5
    209e:	2a 60       	ori	r18, 0x0A	; 10
    20a0:	25 b9       	out	0x05, r18	; 5
    20a2:	25 b1       	in	r18, 0x05	; 5
    20a4:	25 7f       	andi	r18, 0xF5	; 245
    20a6:	25 b9       	out	0x05, r18	; 5
            SET_COLOR(pgm_read_byte(buffer + index + 61));
    20a8:	9c 01       	movw	r18, r24
    20aa:	23 5c       	subi	r18, 0xC3	; 195
    20ac:	3f 4f       	sbci	r19, 0xFF	; 255
    20ae:	e0 91 00 01 	lds	r30, 0x0100	; 0x800100 <_edata>
    20b2:	f0 91 01 01 	lds	r31, 0x0101	; 0x800101 <_edata+0x1>
    20b6:	e2 0f       	add	r30, r18
    20b8:	f3 1f       	adc	r31, r19
    20ba:	e4 91       	lpm	r30, Z
    20bc:	2b b1       	in	r18, 0x0b	; 11
    20be:	64 e0       	ldi	r22, 0x04	; 4
    20c0:	e6 9f       	mul	r30, r22
    20c2:	f0 01       	movw	r30, r0
    20c4:	11 24       	eor	r1, r1
    20c6:	23 70       	andi	r18, 0x03	; 3
    20c8:	e2 2b       	or	r30, r18
    20ca:	eb b9       	out	0x0b, r30	; 11
            PWCLK_GCLK;
    20cc:	25 b1       	in	r18, 0x05	; 5
    20ce:	2a 60       	ori	r18, 0x0A	; 10
    20d0:	25 b9       	out	0x05, r18	; 5
    20d2:	25 b1       	in	r18, 0x05	; 5
    20d4:	25 7f       	andi	r18, 0xF5	; 245
    20d6:	25 b9       	out	0x05, r18	; 5
            PWCLK_GCLK;
    20d8:	25 b1       	in	r18, 0x05	; 5
    20da:	2a 60       	ori	r18, 0x0A	; 10
    20dc:	25 b9       	out	0x05, r18	; 5
    20de:	25 b1       	in	r18, 0x05	; 5
    20e0:	25 7f       	andi	r18, 0xF5	; 245
    20e2:	25 b9       	out	0x05, r18	; 5
            SET_COLOR(pgm_read_byte(buffer + index + 62));
    20e4:	9c 01       	movw	r18, r24
    20e6:	22 5c       	subi	r18, 0xC2	; 194
    20e8:	3f 4f       	sbci	r19, 0xFF	; 255
    20ea:	e0 91 00 01 	lds	r30, 0x0100	; 0x800100 <_edata>
    20ee:	f0 91 01 01 	lds	r31, 0x0101	; 0x800101 <_edata+0x1>
    20f2:	e2 0f       	add	r30, r18
    20f4:	f3 1f       	adc	r31, r19
    20f6:	e4 91       	lpm	r30, Z
    20f8:	2b b1       	in	r18, 0x0b	; 11
    20fa:	74 e0       	ldi	r23, 0x04	; 4
    20fc:	e7 9f       	mul	r30, r23
    20fe:	f0 01       	movw	r30, r0
    2100:	11 24       	eor	r1, r1
    2102:	23 70       	andi	r18, 0x03	; 3
    2104:	e2 2b       	or	r30, r18
    2106:	eb b9       	out	0x0b, r30	; 11
            PWCLK_GCLK;
    2108:	25 b1       	in	r18, 0x05	; 5
    210a:	2a 60       	ori	r18, 0x0A	; 10
    210c:	25 b9       	out	0x05, r18	; 5
    210e:	25 b1       	in	r18, 0x05	; 5
    2110:	25 7f       	andi	r18, 0xF5	; 245
    2112:	25 b9       	out	0x05, r18	; 5
            PWCLK_GCLK;
    2114:	25 b1       	in	r18, 0x05	; 5
    2116:	2a 60       	ori	r18, 0x0A	; 10
    2118:	25 b9       	out	0x05, r18	; 5
    211a:	25 b1       	in	r18, 0x05	; 5
    211c:	25 7f       	andi	r18, 0xF5	; 245
    211e:	25 b9       	out	0x05, r18	; 5
            SET_COLOR(pgm_read_byte(buffer + index + 63));
    2120:	9c 01       	movw	r18, r24
    2122:	21 5c       	subi	r18, 0xC1	; 193
    2124:	3f 4f       	sbci	r19, 0xFF	; 255
    2126:	e0 91 00 01 	lds	r30, 0x0100	; 0x800100 <_edata>
    212a:	f0 91 01 01 	lds	r31, 0x0101	; 0x800101 <_edata+0x1>
    212e:	e2 0f       	add	r30, r18
    2130:	f3 1f       	adc	r31, r19
    2132:	e4 91       	lpm	r30, Z
    2134:	2b b1       	in	r18, 0x0b	; 11
    2136:	34 e0       	ldi	r19, 0x04	; 4
    2138:	e3 9f       	mul	r30, r19
    213a:	f0 01       	movw	r30, r0
    213c:	11 24       	eor	r1, r1
    213e:	23 70       	andi	r18, 0x03	; 3
    2140:	e2 2b       	or	r30, r18
    2142:	eb b9       	out	0x0b, r30	; 11
            PWCLK_GCLK;
    2144:	25 b1       	in	r18, 0x05	; 5
    2146:	2a 60       	ori	r18, 0x0A	; 10
    2148:	25 b9       	out	0x05, r18	; 5
    214a:	25 b1       	in	r18, 0x05	; 5
    214c:	25 7f       	andi	r18, 0xF5	; 245
    214e:	25 b9       	out	0x05, r18	; 5

            // shift data into buffers
            HIGH_LAT;
    2150:	2a 9a       	sbi	0x05, 2	; 5
            PWCLK_GCLK;
    2152:	25 b1       	in	r18, 0x05	; 5
    2154:	2a 60       	ori	r18, 0x0A	; 10
    2156:	25 b9       	out	0x05, r18	; 5
    2158:	25 b1       	in	r18, 0x05	; 5
    215a:	25 7f       	andi	r18, 0xF5	; 245
    215c:	25 b9       	out	0x05, r18	; 5
            CLEAR_LAT;
    215e:	2a 98       	cbi	0x05, 2	; 5

#pragma endregion // MMSB

            index = ((y & ~1) << 5) + (PANEL_BUFFERSIZE / 4);
    2160:	9c 01       	movw	r18, r24
    2162:	3c 5f       	subi	r19, 0xFC	; 252

#pragma region MSB
            // chip 0
            SET_COLOR(pgm_read_byte(buffer + index + 0));
    2164:	e0 91 00 01 	lds	r30, 0x0100	; 0x800100 <_edata>
    2168:	f0 91 01 01 	lds	r31, 0x0101	; 0x800101 <_edata+0x1>
    216c:	e2 0f       	add	r30, r18
    216e:	f3 1f       	adc	r31, r19
    2170:	e4 91       	lpm	r30, Z
    2172:	6b b1       	in	r22, 0x0b	; 11
    2174:	74 e0       	ldi	r23, 0x04	; 4
    2176:	e7 9f       	mul	r30, r23
    2178:	f0 01       	movw	r30, r0
    217a:	11 24       	eor	r1, r1
    217c:	63 70       	andi	r22, 0x03	; 3
    217e:	e6 2b       	or	r30, r22
    2180:	eb b9       	out	0x0b, r30	; 11
            PWCLK_GCLK;
    2182:	65 b1       	in	r22, 0x05	; 5
    2184:	6a 60       	ori	r22, 0x0A	; 10
    2186:	65 b9       	out	0x05, r22	; 5
    2188:	65 b1       	in	r22, 0x05	; 5
    218a:	65 7f       	andi	r22, 0xF5	; 245
    218c:	65 b9       	out	0x05, r22	; 5
            PWCLK_GCLK;
    218e:	65 b1       	in	r22, 0x05	; 5
    2190:	6a 60       	ori	r22, 0x0A	; 10
    2192:	65 b9       	out	0x05, r22	; 5
    2194:	65 b1       	in	r22, 0x05	; 5
    2196:	65 7f       	andi	r22, 0xF5	; 245
    2198:	65 b9       	out	0x05, r22	; 5
            SET_COLOR(pgm_read_byte(buffer + index + 1));
    219a:	b9 01       	movw	r22, r18
    219c:	6f 5f       	subi	r22, 0xFF	; 255
    219e:	7f 4f       	sbci	r23, 0xFF	; 255
    21a0:	e0 91 00 01 	lds	r30, 0x0100	; 0x800100 <_edata>
    21a4:	f0 91 01 01 	lds	r31, 0x0101	; 0x800101 <_edata+0x1>
    21a8:	e6 0f       	add	r30, r22
    21aa:	f7 1f       	adc	r31, r23
    21ac:	e4 91       	lpm	r30, Z
    21ae:	6b b1       	in	r22, 0x0b	; 11
    21b0:	74 e0       	ldi	r23, 0x04	; 4
    21b2:	e7 9f       	mul	r30, r23
    21b4:	f0 01       	movw	r30, r0
    21b6:	11 24       	eor	r1, r1
    21b8:	63 70       	andi	r22, 0x03	; 3
    21ba:	e6 2b       	or	r30, r22
    21bc:	eb b9       	out	0x0b, r30	; 11
            PWCLK_GCLK;
    21be:	65 b1       	in	r22, 0x05	; 5
    21c0:	6a 60       	ori	r22, 0x0A	; 10
    21c2:	65 b9       	out	0x05, r22	; 5
    21c4:	65 b1       	in	r22, 0x05	; 5
    21c6:	65 7f       	andi	r22, 0xF5	; 245
    21c8:	65 b9       	out	0x05, r22	; 5
            PWCLK_GCLK;
    21ca:	65 b1       	in	r22, 0x05	; 5
    21cc:	6a 60       	ori	r22, 0x0A	; 10
    21ce:	65 b9       	out	0x05, r22	; 5
    21d0:	65 b1       	in	r22, 0x05	; 5
    21d2:	65 7f       	andi	r22, 0xF5	; 245
    21d4:	65 b9       	out	0x05, r22	; 5
            SET_COLOR(pgm_read_byte(buffer + index + 2));
    21d6:	b9 01       	movw	r22, r18
    21d8:	6e 5f       	subi	r22, 0xFE	; 254
    21da:	7f 4f       	sbci	r23, 0xFF	; 255
    21dc:	e0 91 00 01 	lds	r30, 0x0100	; 0x800100 <_edata>
    21e0:	f0 91 01 01 	lds	r31, 0x0101	; 0x800101 <_edata+0x1>
    21e4:	e6 0f       	add	r30, r22
    21e6:	f7 1f       	adc	r31, r23
    21e8:	e4 91       	lpm	r30, Z
    21ea:	6b b1       	in	r22, 0x0b	; 11
    21ec:	74 e0       	ldi	r23, 0x04	; 4
    21ee:	e7 9f       	mul	r30, r23
    21f0:	f0 01       	movw	r30, r0
    21f2:	11 24       	eor	r1, r1
    21f4:	63 70       	andi	r22, 0x03	; 3
    21f6:	e6 2b       	or	r30, r22
    21f8:	eb b9       	out	0x0b, r30	; 11
            PWCLK_GCLK;
    21fa:	65 b1       	in	r22, 0x05	; 5
    21fc:	6a 60       	ori	r22, 0x0A	; 10
    21fe:	65 b9       	out	0x05, r22	; 5
    2200:	65 b1       	in	r22, 0x05	; 5
    2202:	65 7f       	andi	r22, 0xF5	; 245
    2204:	65 b9       	out	0x05, r22	; 5
            PWCLK_GCLK;
    2206:	65 b1       	in	r22, 0x05	; 5
    2208:	6a 60       	ori	r22, 0x0A	; 10
    220a:	65 b9       	out	0x05, r22	; 5
    220c:	65 b1       	in	r22, 0x05	; 5
    220e:	65 7f       	andi	r22, 0xF5	; 245
    2210:	65 b9       	out	0x05, r22	; 5
            SET_COLOR(pgm_read_byte(buffer + index + 3));
    2212:	b9 01       	movw	r22, r18
    2214:	6d 5f       	subi	r22, 0xFD	; 253
    2216:	7f 4f       	sbci	r23, 0xFF	; 255
    2218:	e0 91 00 01 	lds	r30, 0x0100	; 0x800100 <_edata>
    221c:	f0 91 01 01 	lds	r31, 0x0101	; 0x800101 <_edata+0x1>
    2220:	e6 0f       	add	r30, r22
    2222:	f7 1f       	adc	r31, r23
    2224:	e4 91       	lpm	r30, Z
    2226:	6b b1       	in	r22, 0x0b	; 11
    2228:	74 e0       	ldi	r23, 0x04	; 4
    222a:	e7 9f       	mul	r30, r23
    222c:	f0 01       	movw	r30, r0
    222e:	11 24       	eor	r1, r1
    2230:	63 70       	andi	r22, 0x03	; 3
    2232:	e6 2b       	or	r30, r22
    2234:	eb b9       	out	0x0b, r30	; 11
            PWCLK_GCLK;
    2236:	65 b1       	in	r22, 0x05	; 5
    2238:	6a 60       	ori	r22, 0x0A	; 10
    223a:	65 b9       	out	0x05, r22	; 5
    223c:	65 b1       	in	r22, 0x05	; 5
    223e:	65 7f       	andi	r22, 0xF5	; 245
    2240:	65 b9       	out	0x05, r22	; 5
            PWCLK_GCLK;
    2242:	65 b1       	in	r22, 0x05	; 5
    2244:	6a 60       	ori	r22, 0x0A	; 10
    2246:	65 b9       	out	0x05, r22	; 5
    2248:	65 b1       	in	r22, 0x05	; 5
    224a:	65 7f       	andi	r22, 0xF5	; 245
    224c:	65 b9       	out	0x05, r22	; 5
            SET_COLOR(pgm_read_byte(buffer + index + 4));
    224e:	b9 01       	movw	r22, r18
    2250:	6c 5f       	subi	r22, 0xFC	; 252
    2252:	7f 4f       	sbci	r23, 0xFF	; 255
    2254:	e0 91 00 01 	lds	r30, 0x0100	; 0x800100 <_edata>
    2258:	f0 91 01 01 	lds	r31, 0x0101	; 0x800101 <_edata+0x1>
    225c:	e6 0f       	add	r30, r22
    225e:	f7 1f       	adc	r31, r23
    2260:	e4 91       	lpm	r30, Z
    2262:	6b b1       	in	r22, 0x0b	; 11
    2264:	74 e0       	ldi	r23, 0x04	; 4
    2266:	e7 9f       	mul	r30, r23
    2268:	f0 01       	movw	r30, r0
    226a:	11 24       	eor	r1, r1
    226c:	63 70       	andi	r22, 0x03	; 3
    226e:	e6 2b       	or	r30, r22
    2270:	eb b9       	out	0x0b, r30	; 11
            PWCLK_GCLK;
    2272:	65 b1       	in	r22, 0x05	; 5
    2274:	6a 60       	ori	r22, 0x0A	; 10
    2276:	65 b9       	out	0x05, r22	; 5
    2278:	65 b1       	in	r22, 0x05	; 5
    227a:	65 7f       	andi	r22, 0xF5	; 245
    227c:	65 b9       	out	0x05, r22	; 5
            PWCLK_GCLK;
    227e:	65 b1       	in	r22, 0x05	; 5
    2280:	6a 60       	ori	r22, 0x0A	; 10
    2282:	65 b9       	out	0x05, r22	; 5
    2284:	65 b1       	in	r22, 0x05	; 5
    2286:	65 7f       	andi	r22, 0xF5	; 245
    2288:	65 b9       	out	0x05, r22	; 5
            SET_COLOR(pgm_read_byte(buffer + index + 5));
    228a:	b9 01       	movw	r22, r18
    228c:	6b 5f       	subi	r22, 0xFB	; 251
    228e:	7f 4f       	sbci	r23, 0xFF	; 255
    2290:	e0 91 00 01 	lds	r30, 0x0100	; 0x800100 <_edata>
    2294:	f0 91 01 01 	lds	r31, 0x0101	; 0x800101 <_edata+0x1>
    2298:	e6 0f       	add	r30, r22
    229a:	f7 1f       	adc	r31, r23
    229c:	e4 91       	lpm	r30, Z
    229e:	6b b1       	in	r22, 0x0b	; 11
    22a0:	74 e0       	ldi	r23, 0x04	; 4
    22a2:	e7 9f       	mul	r30, r23
    22a4:	f0 01       	movw	r30, r0
    22a6:	11 24       	eor	r1, r1
    22a8:	63 70       	andi	r22, 0x03	; 3
    22aa:	e6 2b       	or	r30, r22
    22ac:	eb b9       	out	0x0b, r30	; 11
            PWCLK_GCLK;
    22ae:	65 b1       	in	r22, 0x05	; 5
    22b0:	6a 60       	ori	r22, 0x0A	; 10
    22b2:	65 b9       	out	0x05, r22	; 5
    22b4:	65 b1       	in	r22, 0x05	; 5
    22b6:	65 7f       	andi	r22, 0xF5	; 245
    22b8:	65 b9       	out	0x05, r22	; 5
            PWCLK_GCLK;
    22ba:	65 b1       	in	r22, 0x05	; 5
    22bc:	6a 60       	ori	r22, 0x0A	; 10
    22be:	65 b9       	out	0x05, r22	; 5
    22c0:	65 b1       	in	r22, 0x05	; 5
    22c2:	65 7f       	andi	r22, 0xF5	; 245
    22c4:	65 b9       	out	0x05, r22	; 5
            SET_COLOR(pgm_read_byte(buffer + index + 6));
    22c6:	b9 01       	movw	r22, r18
    22c8:	6a 5f       	subi	r22, 0xFA	; 250
    22ca:	7f 4f       	sbci	r23, 0xFF	; 255
    22cc:	e0 91 00 01 	lds	r30, 0x0100	; 0x800100 <_edata>
    22d0:	f0 91 01 01 	lds	r31, 0x0101	; 0x800101 <_edata+0x1>
    22d4:	e6 0f       	add	r30, r22
    22d6:	f7 1f       	adc	r31, r23
    22d8:	e4 91       	lpm	r30, Z
    22da:	6b b1       	in	r22, 0x0b	; 11
    22dc:	74 e0       	ldi	r23, 0x04	; 4
    22de:	e7 9f       	mul	r30, r23
    22e0:	f0 01       	movw	r30, r0
    22e2:	11 24       	eor	r1, r1
    22e4:	63 70       	andi	r22, 0x03	; 3
    22e6:	e6 2b       	or	r30, r22
    22e8:	eb b9       	out	0x0b, r30	; 11
            PWCLK_GCLK;
    22ea:	65 b1       	in	r22, 0x05	; 5
    22ec:	6a 60       	ori	r22, 0x0A	; 10
    22ee:	65 b9       	out	0x05, r22	; 5
    22f0:	65 b1       	in	r22, 0x05	; 5
    22f2:	65 7f       	andi	r22, 0xF5	; 245
    22f4:	65 b9       	out	0x05, r22	; 5
            PWCLK_GCLK;
    22f6:	65 b1       	in	r22, 0x05	; 5
    22f8:	6a 60       	ori	r22, 0x0A	; 10
    22fa:	65 b9       	out	0x05, r22	; 5
    22fc:	65 b1       	in	r22, 0x05	; 5
    22fe:	65 7f       	andi	r22, 0xF5	; 245
    2300:	65 b9       	out	0x05, r22	; 5
            SET_COLOR(pgm_read_byte(buffer + index + 7));
    2302:	b9 01       	movw	r22, r18
    2304:	69 5f       	subi	r22, 0xF9	; 249
    2306:	7f 4f       	sbci	r23, 0xFF	; 255
    2308:	e0 91 00 01 	lds	r30, 0x0100	; 0x800100 <_edata>
    230c:	f0 91 01 01 	lds	r31, 0x0101	; 0x800101 <_edata+0x1>
    2310:	e6 0f       	add	r30, r22
    2312:	f7 1f       	adc	r31, r23
    2314:	e4 91       	lpm	r30, Z
    2316:	6b b1       	in	r22, 0x0b	; 11
    2318:	74 e0       	ldi	r23, 0x04	; 4
    231a:	e7 9f       	mul	r30, r23
    231c:	f0 01       	movw	r30, r0
    231e:	11 24       	eor	r1, r1
    2320:	63 70       	andi	r22, 0x03	; 3
    2322:	e6 2b       	or	r30, r22
    2324:	eb b9       	out	0x0b, r30	; 11
            PWCLK_GCLK;
    2326:	65 b1       	in	r22, 0x05	; 5
    2328:	6a 60       	ori	r22, 0x0A	; 10
    232a:	65 b9       	out	0x05, r22	; 5
    232c:	65 b1       	in	r22, 0x05	; 5
    232e:	65 7f       	andi	r22, 0xF5	; 245
    2330:	65 b9       	out	0x05, r22	; 5
            PWCLK_GCLK;
    2332:	65 b1       	in	r22, 0x05	; 5
    2334:	6a 60       	ori	r22, 0x0A	; 10
    2336:	65 b9       	out	0x05, r22	; 5
    2338:	65 b1       	in	r22, 0x05	; 5
    233a:	65 7f       	andi	r22, 0xF5	; 245
    233c:	65 b9       	out	0x05, r22	; 5

            // chip 1
            SET_COLOR(pgm_read_byte(buffer + index + 8));
    233e:	b9 01       	movw	r22, r18
    2340:	68 5f       	subi	r22, 0xF8	; 248
    2342:	7f 4f       	sbci	r23, 0xFF	; 255
    2344:	e0 91 00 01 	lds	r30, 0x0100	; 0x800100 <_edata>
    2348:	f0 91 01 01 	lds	r31, 0x0101	; 0x800101 <_edata+0x1>
    234c:	e6 0f       	add	r30, r22
    234e:	f7 1f       	adc	r31, r23
    2350:	e4 91       	lpm	r30, Z
    2352:	6b b1       	in	r22, 0x0b	; 11
    2354:	74 e0       	ldi	r23, 0x04	; 4
    2356:	e7 9f       	mul	r30, r23
    2358:	f0 01       	movw	r30, r0
    235a:	11 24       	eor	r1, r1
    235c:	63 70       	andi	r22, 0x03	; 3
    235e:	e6 2b       	or	r30, r22
    2360:	eb b9       	out	0x0b, r30	; 11
            PWCLK_GCLK;
    2362:	65 b1       	in	r22, 0x05	; 5
    2364:	6a 60       	ori	r22, 0x0A	; 10
    2366:	65 b9       	out	0x05, r22	; 5
    2368:	65 b1       	in	r22, 0x05	; 5
    236a:	65 7f       	andi	r22, 0xF5	; 245
    236c:	65 b9       	out	0x05, r22	; 5
            PWCLK_GCLK;
    236e:	65 b1       	in	r22, 0x05	; 5
    2370:	6a 60       	ori	r22, 0x0A	; 10
    2372:	65 b9       	out	0x05, r22	; 5
    2374:	65 b1       	in	r22, 0x05	; 5
    2376:	65 7f       	andi	r22, 0xF5	; 245
    2378:	65 b9       	out	0x05, r22	; 5
            SET_COLOR(pgm_read_byte(buffer + index + 9));
    237a:	b9 01       	movw	r22, r18
    237c:	67 5f       	subi	r22, 0xF7	; 247
    237e:	7f 4f       	sbci	r23, 0xFF	; 255
    2380:	e0 91 00 01 	lds	r30, 0x0100	; 0x800100 <_edata>
    2384:	f0 91 01 01 	lds	r31, 0x0101	; 0x800101 <_edata+0x1>
    2388:	e6 0f       	add	r30, r22
    238a:	f7 1f       	adc	r31, r23
    238c:	e4 91       	lpm	r30, Z
    238e:	6b b1       	in	r22, 0x0b	; 11
    2390:	74 e0       	ldi	r23, 0x04	; 4
    2392:	e7 9f       	mul	r30, r23
    2394:	f0 01       	movw	r30, r0
    2396:	11 24       	eor	r1, r1
    2398:	63 70       	andi	r22, 0x03	; 3
    239a:	e6 2b       	or	r30, r22
    239c:	eb b9       	out	0x0b, r30	; 11
            PWCLK_GCLK;
    239e:	65 b1       	in	r22, 0x05	; 5
    23a0:	6a 60       	ori	r22, 0x0A	; 10
    23a2:	65 b9       	out	0x05, r22	; 5
    23a4:	65 b1       	in	r22, 0x05	; 5
    23a6:	65 7f       	andi	r22, 0xF5	; 245
    23a8:	65 b9       	out	0x05, r22	; 5
            PWCLK_GCLK;
    23aa:	65 b1       	in	r22, 0x05	; 5
    23ac:	6a 60       	ori	r22, 0x0A	; 10
    23ae:	65 b9       	out	0x05, r22	; 5
    23b0:	65 b1       	in	r22, 0x05	; 5
    23b2:	65 7f       	andi	r22, 0xF5	; 245
    23b4:	65 b9       	out	0x05, r22	; 5
            SET_COLOR(pgm_read_byte(buffer + index + 10));
    23b6:	b9 01       	movw	r22, r18
    23b8:	66 5f       	subi	r22, 0xF6	; 246
    23ba:	7f 4f       	sbci	r23, 0xFF	; 255
    23bc:	e0 91 00 01 	lds	r30, 0x0100	; 0x800100 <_edata>
    23c0:	f0 91 01 01 	lds	r31, 0x0101	; 0x800101 <_edata+0x1>
    23c4:	e6 0f       	add	r30, r22
    23c6:	f7 1f       	adc	r31, r23
    23c8:	e4 91       	lpm	r30, Z
    23ca:	6b b1       	in	r22, 0x0b	; 11
    23cc:	74 e0       	ldi	r23, 0x04	; 4
    23ce:	e7 9f       	mul	r30, r23
    23d0:	f0 01       	movw	r30, r0
    23d2:	11 24       	eor	r1, r1
    23d4:	63 70       	andi	r22, 0x03	; 3
    23d6:	e6 2b       	or	r30, r22
    23d8:	eb b9       	out	0x0b, r30	; 11
            PWCLK_GCLK;
    23da:	65 b1       	in	r22, 0x05	; 5
    23dc:	6a 60       	ori	r22, 0x0A	; 10
    23de:	65 b9       	out	0x05, r22	; 5
    23e0:	65 b1       	in	r22, 0x05	; 5
    23e2:	65 7f       	andi	r22, 0xF5	; 245
    23e4:	65 b9       	out	0x05, r22	; 5
            PWCLK_GCLK;
    23e6:	65 b1       	in	r22, 0x05	; 5
    23e8:	6a 60       	ori	r22, 0x0A	; 10
    23ea:	65 b9       	out	0x05, r22	; 5
    23ec:	65 b1       	in	r22, 0x05	; 5
    23ee:	65 7f       	andi	r22, 0xF5	; 245
    23f0:	65 b9       	out	0x05, r22	; 5
            SET_COLOR(pgm_read_byte(buffer + index + 11));
    23f2:	b9 01       	movw	r22, r18
    23f4:	65 5f       	subi	r22, 0xF5	; 245
    23f6:	7f 4f       	sbci	r23, 0xFF	; 255
    23f8:	e0 91 00 01 	lds	r30, 0x0100	; 0x800100 <_edata>
    23fc:	f0 91 01 01 	lds	r31, 0x0101	; 0x800101 <_edata+0x1>
    2400:	e6 0f       	add	r30, r22
    2402:	f7 1f       	adc	r31, r23
    2404:	e4 91       	lpm	r30, Z
    2406:	6b b1       	in	r22, 0x0b	; 11
    2408:	74 e0       	ldi	r23, 0x04	; 4
    240a:	e7 9f       	mul	r30, r23
    240c:	f0 01       	movw	r30, r0
    240e:	11 24       	eor	r1, r1
    2410:	63 70       	andi	r22, 0x03	; 3
    2412:	e6 2b       	or	r30, r22
    2414:	eb b9       	out	0x0b, r30	; 11
            PWCLK_GCLK;
    2416:	65 b1       	in	r22, 0x05	; 5
    2418:	6a 60       	ori	r22, 0x0A	; 10
    241a:	65 b9       	out	0x05, r22	; 5
    241c:	65 b1       	in	r22, 0x05	; 5
    241e:	65 7f       	andi	r22, 0xF5	; 245
    2420:	65 b9       	out	0x05, r22	; 5
            PWCLK_GCLK;
    2422:	65 b1       	in	r22, 0x05	; 5
    2424:	6a 60       	ori	r22, 0x0A	; 10
    2426:	65 b9       	out	0x05, r22	; 5
    2428:	65 b1       	in	r22, 0x05	; 5
    242a:	65 7f       	andi	r22, 0xF5	; 245
    242c:	65 b9       	out	0x05, r22	; 5
            SET_COLOR(pgm_read_byte(buffer + index + 12));
    242e:	b9 01       	movw	r22, r18
    2430:	64 5f       	subi	r22, 0xF4	; 244
    2432:	7f 4f       	sbci	r23, 0xFF	; 255
    2434:	e0 91 00 01 	lds	r30, 0x0100	; 0x800100 <_edata>
    2438:	f0 91 01 01 	lds	r31, 0x0101	; 0x800101 <_edata+0x1>
    243c:	e6 0f       	add	r30, r22
    243e:	f7 1f       	adc	r31, r23
    2440:	e4 91       	lpm	r30, Z
    2442:	6b b1       	in	r22, 0x0b	; 11
    2444:	74 e0       	ldi	r23, 0x04	; 4
    2446:	e7 9f       	mul	r30, r23
    2448:	f0 01       	movw	r30, r0
    244a:	11 24       	eor	r1, r1
    244c:	63 70       	andi	r22, 0x03	; 3
    244e:	e6 2b       	or	r30, r22
    2450:	eb b9       	out	0x0b, r30	; 11
            PWCLK_GCLK;
    2452:	65 b1       	in	r22, 0x05	; 5
    2454:	6a 60       	ori	r22, 0x0A	; 10
    2456:	65 b9       	out	0x05, r22	; 5
    2458:	65 b1       	in	r22, 0x05	; 5
    245a:	65 7f       	andi	r22, 0xF5	; 245
    245c:	65 b9       	out	0x05, r22	; 5
            PWCLK_GCLK;
    245e:	65 b1       	in	r22, 0x05	; 5
    2460:	6a 60       	ori	r22, 0x0A	; 10
    2462:	65 b9       	out	0x05, r22	; 5
    2464:	65 b1       	in	r22, 0x05	; 5
    2466:	65 7f       	andi	r22, 0xF5	; 245
    2468:	65 b9       	out	0x05, r22	; 5
            SET_COLOR(pgm_read_byte(buffer + index + 13));
    246a:	b9 01       	movw	r22, r18
    246c:	63 5f       	subi	r22, 0xF3	; 243
    246e:	7f 4f       	sbci	r23, 0xFF	; 255
    2470:	e0 91 00 01 	lds	r30, 0x0100	; 0x800100 <_edata>
    2474:	f0 91 01 01 	lds	r31, 0x0101	; 0x800101 <_edata+0x1>
    2478:	e6 0f       	add	r30, r22
    247a:	f7 1f       	adc	r31, r23
    247c:	e4 91       	lpm	r30, Z
    247e:	6b b1       	in	r22, 0x0b	; 11
    2480:	74 e0       	ldi	r23, 0x04	; 4
    2482:	e7 9f       	mul	r30, r23
    2484:	f0 01       	movw	r30, r0
    2486:	11 24       	eor	r1, r1
    2488:	63 70       	andi	r22, 0x03	; 3
    248a:	e6 2b       	or	r30, r22
    248c:	eb b9       	out	0x0b, r30	; 11
            PWCLK_GCLK;
    248e:	65 b1       	in	r22, 0x05	; 5
    2490:	6a 60       	ori	r22, 0x0A	; 10
    2492:	65 b9       	out	0x05, r22	; 5
    2494:	65 b1       	in	r22, 0x05	; 5
    2496:	65 7f       	andi	r22, 0xF5	; 245
    2498:	65 b9       	out	0x05, r22	; 5
            PWCLK_GCLK;
    249a:	65 b1       	in	r22, 0x05	; 5
    249c:	6a 60       	ori	r22, 0x0A	; 10
    249e:	65 b9       	out	0x05, r22	; 5
    24a0:	65 b1       	in	r22, 0x05	; 5
    24a2:	65 7f       	andi	r22, 0xF5	; 245
    24a4:	65 b9       	out	0x05, r22	; 5
            SET_COLOR(pgm_read_byte(buffer + index + 14));
    24a6:	b9 01       	movw	r22, r18
    24a8:	62 5f       	subi	r22, 0xF2	; 242
    24aa:	7f 4f       	sbci	r23, 0xFF	; 255
    24ac:	e0 91 00 01 	lds	r30, 0x0100	; 0x800100 <_edata>
    24b0:	f0 91 01 01 	lds	r31, 0x0101	; 0x800101 <_edata+0x1>
    24b4:	e6 0f       	add	r30, r22
    24b6:	f7 1f       	adc	r31, r23
    24b8:	e4 91       	lpm	r30, Z
    24ba:	6b b1       	in	r22, 0x0b	; 11
    24bc:	74 e0       	ldi	r23, 0x04	; 4
    24be:	e7 9f       	mul	r30, r23
    24c0:	f0 01       	movw	r30, r0
    24c2:	11 24       	eor	r1, r1
    24c4:	63 70       	andi	r22, 0x03	; 3
    24c6:	e6 2b       	or	r30, r22
    24c8:	eb b9       	out	0x0b, r30	; 11
            PWCLK_GCLK;
    24ca:	65 b1       	in	r22, 0x05	; 5
    24cc:	6a 60       	ori	r22, 0x0A	; 10
    24ce:	65 b9       	out	0x05, r22	; 5
    24d0:	65 b1       	in	r22, 0x05	; 5
    24d2:	65 7f       	andi	r22, 0xF5	; 245
    24d4:	65 b9       	out	0x05, r22	; 5
            PWCLK_GCLK;
    24d6:	65 b1       	in	r22, 0x05	; 5
    24d8:	6a 60       	ori	r22, 0x0A	; 10
    24da:	65 b9       	out	0x05, r22	; 5
    24dc:	65 b1       	in	r22, 0x05	; 5
    24de:	65 7f       	andi	r22, 0xF5	; 245
    24e0:	65 b9       	out	0x05, r22	; 5
            SET_COLOR(pgm_read_byte(buffer + index + 15));
    24e2:	b9 01       	movw	r22, r18
    24e4:	61 5f       	subi	r22, 0xF1	; 241
    24e6:	7f 4f       	sbci	r23, 0xFF	; 255
    24e8:	e0 91 00 01 	lds	r30, 0x0100	; 0x800100 <_edata>
    24ec:	f0 91 01 01 	lds	r31, 0x0101	; 0x800101 <_edata+0x1>
    24f0:	e6 0f       	add	r30, r22
    24f2:	f7 1f       	adc	r31, r23
    24f4:	e4 91       	lpm	r30, Z
    24f6:	6b b1       	in	r22, 0x0b	; 11
    24f8:	74 e0       	ldi	r23, 0x04	; 4
    24fa:	e7 9f       	mul	r30, r23
    24fc:	f0 01       	movw	r30, r0
    24fe:	11 24       	eor	r1, r1
    2500:	63 70       	andi	r22, 0x03	; 3
    2502:	e6 2b       	or	r30, r22
    2504:	eb b9       	out	0x0b, r30	; 11
            PWCLK_GCLK;
    2506:	65 b1       	in	r22, 0x05	; 5
    2508:	6a 60       	ori	r22, 0x0A	; 10
    250a:	65 b9       	out	0x05, r22	; 5
    250c:	65 b1       	in	r22, 0x05	; 5
    250e:	65 7f       	andi	r22, 0xF5	; 245
    2510:	65 b9       	out	0x05, r22	; 5
            PWCLK_GCLK;
    2512:	65 b1       	in	r22, 0x05	; 5
    2514:	6a 60       	ori	r22, 0x0A	; 10
    2516:	65 b9       	out	0x05, r22	; 5
    2518:	65 b1       	in	r22, 0x05	; 5
    251a:	65 7f       	andi	r22, 0xF5	; 245
    251c:	65 b9       	out	0x05, r22	; 5

            // chip 2
            SET_COLOR(pgm_read_byte(buffer + index + 16));
    251e:	b9 01       	movw	r22, r18
    2520:	60 5f       	subi	r22, 0xF0	; 240
    2522:	7f 4f       	sbci	r23, 0xFF	; 255
    2524:	e0 91 00 01 	lds	r30, 0x0100	; 0x800100 <_edata>
    2528:	f0 91 01 01 	lds	r31, 0x0101	; 0x800101 <_edata+0x1>
    252c:	e6 0f       	add	r30, r22
    252e:	f7 1f       	adc	r31, r23
    2530:	e4 91       	lpm	r30, Z
    2532:	6b b1       	in	r22, 0x0b	; 11
    2534:	74 e0       	ldi	r23, 0x04	; 4
    2536:	e7 9f       	mul	r30, r23
    2538:	f0 01       	movw	r30, r0
    253a:	11 24       	eor	r1, r1
    253c:	63 70       	andi	r22, 0x03	; 3
    253e:	e6 2b       	or	r30, r22
    2540:	eb b9       	out	0x0b, r30	; 11
            PWCLK_GCLK;
    2542:	65 b1       	in	r22, 0x05	; 5
    2544:	6a 60       	ori	r22, 0x0A	; 10
    2546:	65 b9       	out	0x05, r22	; 5
    2548:	65 b1       	in	r22, 0x05	; 5
    254a:	65 7f       	andi	r22, 0xF5	; 245
    254c:	65 b9       	out	0x05, r22	; 5
            PWCLK_GCLK;
    254e:	65 b1       	in	r22, 0x05	; 5
    2550:	6a 60       	ori	r22, 0x0A	; 10
    2552:	65 b9       	out	0x05, r22	; 5
    2554:	65 b1       	in	r22, 0x05	; 5
    2556:	65 7f       	andi	r22, 0xF5	; 245
    2558:	65 b9       	out	0x05, r22	; 5
            SET_COLOR(pgm_read_byte(buffer + index + 17));
    255a:	b9 01       	movw	r22, r18
    255c:	6f 5e       	subi	r22, 0xEF	; 239
    255e:	7f 4f       	sbci	r23, 0xFF	; 255
    2560:	e0 91 00 01 	lds	r30, 0x0100	; 0x800100 <_edata>
    2564:	f0 91 01 01 	lds	r31, 0x0101	; 0x800101 <_edata+0x1>
    2568:	e6 0f       	add	r30, r22
    256a:	f7 1f       	adc	r31, r23
    256c:	e4 91       	lpm	r30, Z
    256e:	6b b1       	in	r22, 0x0b	; 11
    2570:	74 e0       	ldi	r23, 0x04	; 4
    2572:	e7 9f       	mul	r30, r23
    2574:	f0 01       	movw	r30, r0
    2576:	11 24       	eor	r1, r1
    2578:	63 70       	andi	r22, 0x03	; 3
    257a:	e6 2b       	or	r30, r22
    257c:	eb b9       	out	0x0b, r30	; 11
            PWCLK_GCLK;
    257e:	65 b1       	in	r22, 0x05	; 5
    2580:	6a 60       	ori	r22, 0x0A	; 10
    2582:	65 b9       	out	0x05, r22	; 5
    2584:	65 b1       	in	r22, 0x05	; 5
    2586:	65 7f       	andi	r22, 0xF5	; 245
    2588:	65 b9       	out	0x05, r22	; 5
            PWCLK_GCLK;
    258a:	65 b1       	in	r22, 0x05	; 5
    258c:	6a 60       	ori	r22, 0x0A	; 10
    258e:	65 b9       	out	0x05, r22	; 5
    2590:	65 b1       	in	r22, 0x05	; 5
    2592:	65 7f       	andi	r22, 0xF5	; 245
    2594:	65 b9       	out	0x05, r22	; 5
            SET_COLOR(pgm_read_byte(buffer + index + 18));
    2596:	b9 01       	movw	r22, r18
    2598:	6e 5e       	subi	r22, 0xEE	; 238
    259a:	7f 4f       	sbci	r23, 0xFF	; 255
    259c:	e0 91 00 01 	lds	r30, 0x0100	; 0x800100 <_edata>
    25a0:	f0 91 01 01 	lds	r31, 0x0101	; 0x800101 <_edata+0x1>
    25a4:	e6 0f       	add	r30, r22
    25a6:	f7 1f       	adc	r31, r23
    25a8:	e4 91       	lpm	r30, Z
    25aa:	6b b1       	in	r22, 0x0b	; 11
    25ac:	74 e0       	ldi	r23, 0x04	; 4
    25ae:	e7 9f       	mul	r30, r23
    25b0:	f0 01       	movw	r30, r0
    25b2:	11 24       	eor	r1, r1
    25b4:	63 70       	andi	r22, 0x03	; 3
    25b6:	e6 2b       	or	r30, r22
    25b8:	eb b9       	out	0x0b, r30	; 11
            PWCLK_GCLK;
    25ba:	65 b1       	in	r22, 0x05	; 5
    25bc:	6a 60       	ori	r22, 0x0A	; 10
    25be:	65 b9       	out	0x05, r22	; 5
    25c0:	65 b1       	in	r22, 0x05	; 5
    25c2:	65 7f       	andi	r22, 0xF5	; 245
    25c4:	65 b9       	out	0x05, r22	; 5
            PWCLK_GCLK;
    25c6:	65 b1       	in	r22, 0x05	; 5
    25c8:	6a 60       	ori	r22, 0x0A	; 10
    25ca:	65 b9       	out	0x05, r22	; 5
    25cc:	65 b1       	in	r22, 0x05	; 5
    25ce:	65 7f       	andi	r22, 0xF5	; 245
    25d0:	65 b9       	out	0x05, r22	; 5
            SET_COLOR(pgm_read_byte(buffer + index + 19));
    25d2:	b9 01       	movw	r22, r18
    25d4:	6d 5e       	subi	r22, 0xED	; 237
    25d6:	7f 4f       	sbci	r23, 0xFF	; 255
    25d8:	e0 91 00 01 	lds	r30, 0x0100	; 0x800100 <_edata>
    25dc:	f0 91 01 01 	lds	r31, 0x0101	; 0x800101 <_edata+0x1>
    25e0:	e6 0f       	add	r30, r22
    25e2:	f7 1f       	adc	r31, r23
    25e4:	e4 91       	lpm	r30, Z
    25e6:	6b b1       	in	r22, 0x0b	; 11
    25e8:	74 e0       	ldi	r23, 0x04	; 4
    25ea:	e7 9f       	mul	r30, r23
    25ec:	f0 01       	movw	r30, r0
    25ee:	11 24       	eor	r1, r1
    25f0:	63 70       	andi	r22, 0x03	; 3
    25f2:	e6 2b       	or	r30, r22
    25f4:	eb b9       	out	0x0b, r30	; 11
            PWCLK_GCLK;
    25f6:	65 b1       	in	r22, 0x05	; 5
    25f8:	6a 60       	ori	r22, 0x0A	; 10
    25fa:	65 b9       	out	0x05, r22	; 5
    25fc:	65 b1       	in	r22, 0x05	; 5
    25fe:	65 7f       	andi	r22, 0xF5	; 245
    2600:	65 b9       	out	0x05, r22	; 5
            PWCLK_GCLK;
    2602:	65 b1       	in	r22, 0x05	; 5
    2604:	6a 60       	ori	r22, 0x0A	; 10
    2606:	65 b9       	out	0x05, r22	; 5
    2608:	65 b1       	in	r22, 0x05	; 5
    260a:	65 7f       	andi	r22, 0xF5	; 245
    260c:	65 b9       	out	0x05, r22	; 5
            SET_COLOR(pgm_read_byte(buffer + index + 20));
    260e:	b9 01       	movw	r22, r18
    2610:	6c 5e       	subi	r22, 0xEC	; 236
    2612:	7f 4f       	sbci	r23, 0xFF	; 255
    2614:	e0 91 00 01 	lds	r30, 0x0100	; 0x800100 <_edata>
    2618:	f0 91 01 01 	lds	r31, 0x0101	; 0x800101 <_edata+0x1>
    261c:	e6 0f       	add	r30, r22
    261e:	f7 1f       	adc	r31, r23
    2620:	e4 91       	lpm	r30, Z
    2622:	6b b1       	in	r22, 0x0b	; 11
    2624:	74 e0       	ldi	r23, 0x04	; 4
    2626:	e7 9f       	mul	r30, r23
    2628:	f0 01       	movw	r30, r0
    262a:	11 24       	eor	r1, r1
    262c:	63 70       	andi	r22, 0x03	; 3
    262e:	e6 2b       	or	r30, r22
    2630:	eb b9       	out	0x0b, r30	; 11
            PWCLK_GCLK;
    2632:	65 b1       	in	r22, 0x05	; 5
    2634:	6a 60       	ori	r22, 0x0A	; 10
    2636:	65 b9       	out	0x05, r22	; 5
    2638:	65 b1       	in	r22, 0x05	; 5
    263a:	65 7f       	andi	r22, 0xF5	; 245
    263c:	65 b9       	out	0x05, r22	; 5
            PWCLK_GCLK;
    263e:	65 b1       	in	r22, 0x05	; 5
    2640:	6a 60       	ori	r22, 0x0A	; 10
    2642:	65 b9       	out	0x05, r22	; 5
    2644:	65 b1       	in	r22, 0x05	; 5
    2646:	65 7f       	andi	r22, 0xF5	; 245
    2648:	65 b9       	out	0x05, r22	; 5
            SET_COLOR(pgm_read_byte(buffer + index + 21));
    264a:	b9 01       	movw	r22, r18
    264c:	6b 5e       	subi	r22, 0xEB	; 235
    264e:	7f 4f       	sbci	r23, 0xFF	; 255
    2650:	e0 91 00 01 	lds	r30, 0x0100	; 0x800100 <_edata>
    2654:	f0 91 01 01 	lds	r31, 0x0101	; 0x800101 <_edata+0x1>
    2658:	e6 0f       	add	r30, r22
    265a:	f7 1f       	adc	r31, r23
    265c:	e4 91       	lpm	r30, Z
    265e:	6b b1       	in	r22, 0x0b	; 11
    2660:	74 e0       	ldi	r23, 0x04	; 4
    2662:	e7 9f       	mul	r30, r23
    2664:	f0 01       	movw	r30, r0
    2666:	11 24       	eor	r1, r1
    2668:	63 70       	andi	r22, 0x03	; 3
    266a:	e6 2b       	or	r30, r22
    266c:	eb b9       	out	0x0b, r30	; 11
            PWCLK_GCLK;
    266e:	65 b1       	in	r22, 0x05	; 5
    2670:	6a 60       	ori	r22, 0x0A	; 10
    2672:	65 b9       	out	0x05, r22	; 5
    2674:	65 b1       	in	r22, 0x05	; 5
    2676:	65 7f       	andi	r22, 0xF5	; 245
    2678:	65 b9       	out	0x05, r22	; 5
            PWCLK_GCLK;
    267a:	65 b1       	in	r22, 0x05	; 5
    267c:	6a 60       	ori	r22, 0x0A	; 10
    267e:	65 b9       	out	0x05, r22	; 5
    2680:	65 b1       	in	r22, 0x05	; 5
    2682:	65 7f       	andi	r22, 0xF5	; 245
    2684:	65 b9       	out	0x05, r22	; 5
            SET_COLOR(pgm_read_byte(buffer + index + 22));
    2686:	b9 01       	movw	r22, r18
    2688:	6a 5e       	subi	r22, 0xEA	; 234
    268a:	7f 4f       	sbci	r23, 0xFF	; 255
    268c:	e0 91 00 01 	lds	r30, 0x0100	; 0x800100 <_edata>
    2690:	f0 91 01 01 	lds	r31, 0x0101	; 0x800101 <_edata+0x1>
    2694:	e6 0f       	add	r30, r22
    2696:	f7 1f       	adc	r31, r23
    2698:	e4 91       	lpm	r30, Z
    269a:	6b b1       	in	r22, 0x0b	; 11
    269c:	74 e0       	ldi	r23, 0x04	; 4
    269e:	e7 9f       	mul	r30, r23
    26a0:	f0 01       	movw	r30, r0
    26a2:	11 24       	eor	r1, r1
    26a4:	63 70       	andi	r22, 0x03	; 3
    26a6:	e6 2b       	or	r30, r22
    26a8:	eb b9       	out	0x0b, r30	; 11
            PWCLK_GCLK;
    26aa:	65 b1       	in	r22, 0x05	; 5
    26ac:	6a 60       	ori	r22, 0x0A	; 10
    26ae:	65 b9       	out	0x05, r22	; 5
    26b0:	65 b1       	in	r22, 0x05	; 5
    26b2:	65 7f       	andi	r22, 0xF5	; 245
    26b4:	65 b9       	out	0x05, r22	; 5
            PWCLK_GCLK;
    26b6:	65 b1       	in	r22, 0x05	; 5
    26b8:	6a 60       	ori	r22, 0x0A	; 10
    26ba:	65 b9       	out	0x05, r22	; 5
    26bc:	65 b1       	in	r22, 0x05	; 5
    26be:	65 7f       	andi	r22, 0xF5	; 245
    26c0:	65 b9       	out	0x05, r22	; 5
            SET_COLOR(pgm_read_byte(buffer + index + 23));
    26c2:	b9 01       	movw	r22, r18
    26c4:	69 5e       	subi	r22, 0xE9	; 233
    26c6:	7f 4f       	sbci	r23, 0xFF	; 255
    26c8:	e0 91 00 01 	lds	r30, 0x0100	; 0x800100 <_edata>
    26cc:	f0 91 01 01 	lds	r31, 0x0101	; 0x800101 <_edata+0x1>
    26d0:	e6 0f       	add	r30, r22
    26d2:	f7 1f       	adc	r31, r23
    26d4:	e4 91       	lpm	r30, Z
    26d6:	6b b1       	in	r22, 0x0b	; 11
    26d8:	74 e0       	ldi	r23, 0x04	; 4
    26da:	e7 9f       	mul	r30, r23
    26dc:	f0 01       	movw	r30, r0
    26de:	11 24       	eor	r1, r1
    26e0:	63 70       	andi	r22, 0x03	; 3
    26e2:	e6 2b       	or	r30, r22
    26e4:	eb b9       	out	0x0b, r30	; 11
            PWCLK_GCLK;
    26e6:	65 b1       	in	r22, 0x05	; 5
    26e8:	6a 60       	ori	r22, 0x0A	; 10
    26ea:	65 b9       	out	0x05, r22	; 5
    26ec:	65 b1       	in	r22, 0x05	; 5
    26ee:	65 7f       	andi	r22, 0xF5	; 245
    26f0:	65 b9       	out	0x05, r22	; 5
            PWCLK_GCLK;
    26f2:	65 b1       	in	r22, 0x05	; 5
    26f4:	6a 60       	ori	r22, 0x0A	; 10
    26f6:	65 b9       	out	0x05, r22	; 5
    26f8:	65 b1       	in	r22, 0x05	; 5
    26fa:	65 7f       	andi	r22, 0xF5	; 245
    26fc:	65 b9       	out	0x05, r22	; 5

            // chip 3
            SET_COLOR(pgm_read_byte(buffer + index + 24));
    26fe:	b9 01       	movw	r22, r18
    2700:	68 5e       	subi	r22, 0xE8	; 232
    2702:	7f 4f       	sbci	r23, 0xFF	; 255
    2704:	e0 91 00 01 	lds	r30, 0x0100	; 0x800100 <_edata>
    2708:	f0 91 01 01 	lds	r31, 0x0101	; 0x800101 <_edata+0x1>
    270c:	e6 0f       	add	r30, r22
    270e:	f7 1f       	adc	r31, r23
    2710:	e4 91       	lpm	r30, Z
    2712:	6b b1       	in	r22, 0x0b	; 11
    2714:	74 e0       	ldi	r23, 0x04	; 4
    2716:	e7 9f       	mul	r30, r23
    2718:	f0 01       	movw	r30, r0
    271a:	11 24       	eor	r1, r1
    271c:	63 70       	andi	r22, 0x03	; 3
    271e:	e6 2b       	or	r30, r22
    2720:	eb b9       	out	0x0b, r30	; 11
            PWCLK_GCLK;
    2722:	65 b1       	in	r22, 0x05	; 5
    2724:	6a 60       	ori	r22, 0x0A	; 10
    2726:	65 b9       	out	0x05, r22	; 5
    2728:	65 b1       	in	r22, 0x05	; 5
    272a:	65 7f       	andi	r22, 0xF5	; 245
    272c:	65 b9       	out	0x05, r22	; 5
            PWCLK_GCLK;
    272e:	65 b1       	in	r22, 0x05	; 5
    2730:	6a 60       	ori	r22, 0x0A	; 10
    2732:	65 b9       	out	0x05, r22	; 5
    2734:	65 b1       	in	r22, 0x05	; 5
    2736:	65 7f       	andi	r22, 0xF5	; 245
    2738:	65 b9       	out	0x05, r22	; 5
            SET_COLOR(pgm_read_byte(buffer + index + 25));
    273a:	b9 01       	movw	r22, r18
    273c:	67 5e       	subi	r22, 0xE7	; 231
    273e:	7f 4f       	sbci	r23, 0xFF	; 255
    2740:	e0 91 00 01 	lds	r30, 0x0100	; 0x800100 <_edata>
    2744:	f0 91 01 01 	lds	r31, 0x0101	; 0x800101 <_edata+0x1>
    2748:	e6 0f       	add	r30, r22
    274a:	f7 1f       	adc	r31, r23
    274c:	e4 91       	lpm	r30, Z
    274e:	6b b1       	in	r22, 0x0b	; 11
    2750:	74 e0       	ldi	r23, 0x04	; 4
    2752:	e7 9f       	mul	r30, r23
    2754:	f0 01       	movw	r30, r0
    2756:	11 24       	eor	r1, r1
    2758:	63 70       	andi	r22, 0x03	; 3
    275a:	e6 2b       	or	r30, r22
    275c:	eb b9       	out	0x0b, r30	; 11
            PWCLK_GCLK;
    275e:	65 b1       	in	r22, 0x05	; 5
    2760:	6a 60       	ori	r22, 0x0A	; 10
    2762:	65 b9       	out	0x05, r22	; 5
    2764:	65 b1       	in	r22, 0x05	; 5
    2766:	65 7f       	andi	r22, 0xF5	; 245
    2768:	65 b9       	out	0x05, r22	; 5
            PWCLK_GCLK;
    276a:	65 b1       	in	r22, 0x05	; 5
    276c:	6a 60       	ori	r22, 0x0A	; 10
    276e:	65 b9       	out	0x05, r22	; 5
    2770:	65 b1       	in	r22, 0x05	; 5
    2772:	65 7f       	andi	r22, 0xF5	; 245
    2774:	65 b9       	out	0x05, r22	; 5
            SET_COLOR(pgm_read_byte(buffer + index + 26));
    2776:	b9 01       	movw	r22, r18
    2778:	66 5e       	subi	r22, 0xE6	; 230
    277a:	7f 4f       	sbci	r23, 0xFF	; 255
    277c:	e0 91 00 01 	lds	r30, 0x0100	; 0x800100 <_edata>
    2780:	f0 91 01 01 	lds	r31, 0x0101	; 0x800101 <_edata+0x1>
    2784:	e6 0f       	add	r30, r22
    2786:	f7 1f       	adc	r31, r23
    2788:	e4 91       	lpm	r30, Z
    278a:	6b b1       	in	r22, 0x0b	; 11
    278c:	74 e0       	ldi	r23, 0x04	; 4
    278e:	e7 9f       	mul	r30, r23
    2790:	f0 01       	movw	r30, r0
    2792:	11 24       	eor	r1, r1
    2794:	63 70       	andi	r22, 0x03	; 3
    2796:	e6 2b       	or	r30, r22
    2798:	eb b9       	out	0x0b, r30	; 11
            PWCLK_GCLK;
    279a:	65 b1       	in	r22, 0x05	; 5
    279c:	6a 60       	ori	r22, 0x0A	; 10
    279e:	65 b9       	out	0x05, r22	; 5
    27a0:	65 b1       	in	r22, 0x05	; 5
    27a2:	65 7f       	andi	r22, 0xF5	; 245
    27a4:	65 b9       	out	0x05, r22	; 5
            PWCLK_GCLK;
    27a6:	65 b1       	in	r22, 0x05	; 5
    27a8:	6a 60       	ori	r22, 0x0A	; 10
    27aa:	65 b9       	out	0x05, r22	; 5
    27ac:	65 b1       	in	r22, 0x05	; 5
    27ae:	65 7f       	andi	r22, 0xF5	; 245
    27b0:	65 b9       	out	0x05, r22	; 5
            SET_COLOR(pgm_read_byte(buffer + index + 27));
    27b2:	b9 01       	movw	r22, r18
    27b4:	65 5e       	subi	r22, 0xE5	; 229
    27b6:	7f 4f       	sbci	r23, 0xFF	; 255
    27b8:	e0 91 00 01 	lds	r30, 0x0100	; 0x800100 <_edata>
    27bc:	f0 91 01 01 	lds	r31, 0x0101	; 0x800101 <_edata+0x1>
    27c0:	e6 0f       	add	r30, r22
    27c2:	f7 1f       	adc	r31, r23
    27c4:	e4 91       	lpm	r30, Z
    27c6:	6b b1       	in	r22, 0x0b	; 11
    27c8:	74 e0       	ldi	r23, 0x04	; 4
    27ca:	e7 9f       	mul	r30, r23
    27cc:	f0 01       	movw	r30, r0
    27ce:	11 24       	eor	r1, r1
    27d0:	63 70       	andi	r22, 0x03	; 3
    27d2:	e6 2b       	or	r30, r22
    27d4:	eb b9       	out	0x0b, r30	; 11
            PWCLK_GCLK;
    27d6:	65 b1       	in	r22, 0x05	; 5
    27d8:	6a 60       	ori	r22, 0x0A	; 10
    27da:	65 b9       	out	0x05, r22	; 5
    27dc:	65 b1       	in	r22, 0x05	; 5
    27de:	65 7f       	andi	r22, 0xF5	; 245
    27e0:	65 b9       	out	0x05, r22	; 5
            PWCLK_GCLK;
    27e2:	65 b1       	in	r22, 0x05	; 5
    27e4:	6a 60       	ori	r22, 0x0A	; 10
    27e6:	65 b9       	out	0x05, r22	; 5
    27e8:	65 b1       	in	r22, 0x05	; 5
    27ea:	65 7f       	andi	r22, 0xF5	; 245
    27ec:	65 b9       	out	0x05, r22	; 5
            SET_COLOR(pgm_read_byte(buffer + index + 28));
    27ee:	b9 01       	movw	r22, r18
    27f0:	64 5e       	subi	r22, 0xE4	; 228
    27f2:	7f 4f       	sbci	r23, 0xFF	; 255
    27f4:	e0 91 00 01 	lds	r30, 0x0100	; 0x800100 <_edata>
    27f8:	f0 91 01 01 	lds	r31, 0x0101	; 0x800101 <_edata+0x1>
    27fc:	e6 0f       	add	r30, r22
    27fe:	f7 1f       	adc	r31, r23
    2800:	e4 91       	lpm	r30, Z
    2802:	6b b1       	in	r22, 0x0b	; 11
    2804:	74 e0       	ldi	r23, 0x04	; 4
    2806:	e7 9f       	mul	r30, r23
    2808:	f0 01       	movw	r30, r0
    280a:	11 24       	eor	r1, r1
    280c:	63 70       	andi	r22, 0x03	; 3
    280e:	e6 2b       	or	r30, r22
    2810:	eb b9       	out	0x0b, r30	; 11
            PWCLK_GCLK;
    2812:	65 b1       	in	r22, 0x05	; 5
    2814:	6a 60       	ori	r22, 0x0A	; 10
    2816:	65 b9       	out	0x05, r22	; 5
    2818:	65 b1       	in	r22, 0x05	; 5
    281a:	65 7f       	andi	r22, 0xF5	; 245
    281c:	65 b9       	out	0x05, r22	; 5
            PWCLK_GCLK;
    281e:	65 b1       	in	r22, 0x05	; 5
    2820:	6a 60       	ori	r22, 0x0A	; 10
    2822:	65 b9       	out	0x05, r22	; 5
    2824:	65 b1       	in	r22, 0x05	; 5
    2826:	65 7f       	andi	r22, 0xF5	; 245
    2828:	65 b9       	out	0x05, r22	; 5
            SET_COLOR(pgm_read_byte(buffer + index + 29));
    282a:	b9 01       	movw	r22, r18
    282c:	63 5e       	subi	r22, 0xE3	; 227
    282e:	7f 4f       	sbci	r23, 0xFF	; 255
    2830:	e0 91 00 01 	lds	r30, 0x0100	; 0x800100 <_edata>
    2834:	f0 91 01 01 	lds	r31, 0x0101	; 0x800101 <_edata+0x1>
    2838:	e6 0f       	add	r30, r22
    283a:	f7 1f       	adc	r31, r23
    283c:	e4 91       	lpm	r30, Z
    283e:	6b b1       	in	r22, 0x0b	; 11
    2840:	74 e0       	ldi	r23, 0x04	; 4
    2842:	e7 9f       	mul	r30, r23
    2844:	f0 01       	movw	r30, r0
    2846:	11 24       	eor	r1, r1
    2848:	63 70       	andi	r22, 0x03	; 3
    284a:	e6 2b       	or	r30, r22
    284c:	eb b9       	out	0x0b, r30	; 11
            PWCLK_GCLK;
    284e:	65 b1       	in	r22, 0x05	; 5
    2850:	6a 60       	ori	r22, 0x0A	; 10
    2852:	65 b9       	out	0x05, r22	; 5
    2854:	65 b1       	in	r22, 0x05	; 5
    2856:	65 7f       	andi	r22, 0xF5	; 245
    2858:	65 b9       	out	0x05, r22	; 5
            PWCLK_GCLK;
    285a:	65 b1       	in	r22, 0x05	; 5
    285c:	6a 60       	ori	r22, 0x0A	; 10
    285e:	65 b9       	out	0x05, r22	; 5
    2860:	65 b1       	in	r22, 0x05	; 5
    2862:	65 7f       	andi	r22, 0xF5	; 245
    2864:	65 b9       	out	0x05, r22	; 5
            SET_COLOR(pgm_read_byte(buffer + index + 30));
    2866:	b9 01       	movw	r22, r18
    2868:	62 5e       	subi	r22, 0xE2	; 226
    286a:	7f 4f       	sbci	r23, 0xFF	; 255
    286c:	e0 91 00 01 	lds	r30, 0x0100	; 0x800100 <_edata>
    2870:	f0 91 01 01 	lds	r31, 0x0101	; 0x800101 <_edata+0x1>
    2874:	e6 0f       	add	r30, r22
    2876:	f7 1f       	adc	r31, r23
    2878:	e4 91       	lpm	r30, Z
    287a:	6b b1       	in	r22, 0x0b	; 11
    287c:	74 e0       	ldi	r23, 0x04	; 4
    287e:	e7 9f       	mul	r30, r23
    2880:	f0 01       	movw	r30, r0
    2882:	11 24       	eor	r1, r1
    2884:	63 70       	andi	r22, 0x03	; 3
    2886:	e6 2b       	or	r30, r22
    2888:	eb b9       	out	0x0b, r30	; 11
            PWCLK_GCLK;
    288a:	65 b1       	in	r22, 0x05	; 5
    288c:	6a 60       	ori	r22, 0x0A	; 10
    288e:	65 b9       	out	0x05, r22	; 5
    2890:	65 b1       	in	r22, 0x05	; 5
    2892:	65 7f       	andi	r22, 0xF5	; 245
    2894:	65 b9       	out	0x05, r22	; 5
            PWCLK_GCLK;
    2896:	65 b1       	in	r22, 0x05	; 5
    2898:	6a 60       	ori	r22, 0x0A	; 10
    289a:	65 b9       	out	0x05, r22	; 5
    289c:	65 b1       	in	r22, 0x05	; 5
    289e:	65 7f       	andi	r22, 0xF5	; 245
    28a0:	65 b9       	out	0x05, r22	; 5
            SET_COLOR(pgm_read_byte(buffer + index + 31));
    28a2:	b9 01       	movw	r22, r18
    28a4:	61 5e       	subi	r22, 0xE1	; 225
    28a6:	7f 4f       	sbci	r23, 0xFF	; 255
    28a8:	e0 91 00 01 	lds	r30, 0x0100	; 0x800100 <_edata>
    28ac:	f0 91 01 01 	lds	r31, 0x0101	; 0x800101 <_edata+0x1>
    28b0:	e6 0f       	add	r30, r22
    28b2:	f7 1f       	adc	r31, r23
    28b4:	e4 91       	lpm	r30, Z
    28b6:	6b b1       	in	r22, 0x0b	; 11
    28b8:	74 e0       	ldi	r23, 0x04	; 4
    28ba:	e7 9f       	mul	r30, r23
    28bc:	f0 01       	movw	r30, r0
    28be:	11 24       	eor	r1, r1
    28c0:	63 70       	andi	r22, 0x03	; 3
    28c2:	e6 2b       	or	r30, r22
    28c4:	eb b9       	out	0x0b, r30	; 11
            PWCLK_GCLK;
    28c6:	65 b1       	in	r22, 0x05	; 5
    28c8:	6a 60       	ori	r22, 0x0A	; 10
    28ca:	65 b9       	out	0x05, r22	; 5
    28cc:	65 b1       	in	r22, 0x05	; 5
    28ce:	65 7f       	andi	r22, 0xF5	; 245
    28d0:	65 b9       	out	0x05, r22	; 5
            PWCLK_GCLK;
    28d2:	65 b1       	in	r22, 0x05	; 5
    28d4:	6a 60       	ori	r22, 0x0A	; 10
    28d6:	65 b9       	out	0x05, r22	; 5
    28d8:	65 b1       	in	r22, 0x05	; 5
    28da:	65 7f       	andi	r22, 0xF5	; 245
    28dc:	65 b9       	out	0x05, r22	; 5

            // chip 4
            SET_COLOR(pgm_read_byte(buffer + index + 32));
    28de:	b9 01       	movw	r22, r18
    28e0:	60 5e       	subi	r22, 0xE0	; 224
    28e2:	7f 4f       	sbci	r23, 0xFF	; 255
    28e4:	e0 91 00 01 	lds	r30, 0x0100	; 0x800100 <_edata>
    28e8:	f0 91 01 01 	lds	r31, 0x0101	; 0x800101 <_edata+0x1>
    28ec:	e6 0f       	add	r30, r22
    28ee:	f7 1f       	adc	r31, r23
    28f0:	e4 91       	lpm	r30, Z
    28f2:	6b b1       	in	r22, 0x0b	; 11
    28f4:	74 e0       	ldi	r23, 0x04	; 4
    28f6:	e7 9f       	mul	r30, r23
    28f8:	f0 01       	movw	r30, r0
    28fa:	11 24       	eor	r1, r1
    28fc:	63 70       	andi	r22, 0x03	; 3
    28fe:	e6 2b       	or	r30, r22
    2900:	eb b9       	out	0x0b, r30	; 11
            PWCLK_GCLK;
    2902:	65 b1       	in	r22, 0x05	; 5
    2904:	6a 60       	ori	r22, 0x0A	; 10
    2906:	65 b9       	out	0x05, r22	; 5
    2908:	65 b1       	in	r22, 0x05	; 5
    290a:	65 7f       	andi	r22, 0xF5	; 245
    290c:	65 b9       	out	0x05, r22	; 5
            PWCLK_GCLK;
    290e:	65 b1       	in	r22, 0x05	; 5
    2910:	6a 60       	ori	r22, 0x0A	; 10
    2912:	65 b9       	out	0x05, r22	; 5
    2914:	65 b1       	in	r22, 0x05	; 5
    2916:	65 7f       	andi	r22, 0xF5	; 245
    2918:	65 b9       	out	0x05, r22	; 5
            SET_COLOR(pgm_read_byte(buffer + index + 33));
    291a:	b9 01       	movw	r22, r18
    291c:	6f 5d       	subi	r22, 0xDF	; 223
    291e:	7f 4f       	sbci	r23, 0xFF	; 255
    2920:	e0 91 00 01 	lds	r30, 0x0100	; 0x800100 <_edata>
    2924:	f0 91 01 01 	lds	r31, 0x0101	; 0x800101 <_edata+0x1>
    2928:	e6 0f       	add	r30, r22
    292a:	f7 1f       	adc	r31, r23
    292c:	e4 91       	lpm	r30, Z
    292e:	6b b1       	in	r22, 0x0b	; 11
    2930:	74 e0       	ldi	r23, 0x04	; 4
    2932:	e7 9f       	mul	r30, r23
    2934:	f0 01       	movw	r30, r0
    2936:	11 24       	eor	r1, r1
    2938:	63 70       	andi	r22, 0x03	; 3
    293a:	e6 2b       	or	r30, r22
    293c:	eb b9       	out	0x0b, r30	; 11
            PWCLK_GCLK;
    293e:	65 b1       	in	r22, 0x05	; 5
    2940:	6a 60       	ori	r22, 0x0A	; 10
    2942:	65 b9       	out	0x05, r22	; 5
    2944:	65 b1       	in	r22, 0x05	; 5
    2946:	65 7f       	andi	r22, 0xF5	; 245
    2948:	65 b9       	out	0x05, r22	; 5
            PWCLK_GCLK;
    294a:	65 b1       	in	r22, 0x05	; 5
    294c:	6a 60       	ori	r22, 0x0A	; 10
    294e:	65 b9       	out	0x05, r22	; 5
    2950:	65 b1       	in	r22, 0x05	; 5
    2952:	65 7f       	andi	r22, 0xF5	; 245
    2954:	65 b9       	out	0x05, r22	; 5
            SET_COLOR(pgm_read_byte(buffer + index + 34));
    2956:	b9 01       	movw	r22, r18
    2958:	6e 5d       	subi	r22, 0xDE	; 222
    295a:	7f 4f       	sbci	r23, 0xFF	; 255
    295c:	e0 91 00 01 	lds	r30, 0x0100	; 0x800100 <_edata>
    2960:	f0 91 01 01 	lds	r31, 0x0101	; 0x800101 <_edata+0x1>
    2964:	e6 0f       	add	r30, r22
    2966:	f7 1f       	adc	r31, r23
    2968:	e4 91       	lpm	r30, Z
    296a:	6b b1       	in	r22, 0x0b	; 11
    296c:	74 e0       	ldi	r23, 0x04	; 4
    296e:	e7 9f       	mul	r30, r23
    2970:	f0 01       	movw	r30, r0
    2972:	11 24       	eor	r1, r1
    2974:	63 70       	andi	r22, 0x03	; 3
    2976:	e6 2b       	or	r30, r22
    2978:	eb b9       	out	0x0b, r30	; 11
            PWCLK_GCLK;
    297a:	65 b1       	in	r22, 0x05	; 5
    297c:	6a 60       	ori	r22, 0x0A	; 10
    297e:	65 b9       	out	0x05, r22	; 5
    2980:	65 b1       	in	r22, 0x05	; 5
    2982:	65 7f       	andi	r22, 0xF5	; 245
    2984:	65 b9       	out	0x05, r22	; 5
            PWCLK_GCLK;
    2986:	65 b1       	in	r22, 0x05	; 5
    2988:	6a 60       	ori	r22, 0x0A	; 10
    298a:	65 b9       	out	0x05, r22	; 5
    298c:	65 b1       	in	r22, 0x05	; 5
    298e:	65 7f       	andi	r22, 0xF5	; 245
    2990:	65 b9       	out	0x05, r22	; 5
            SET_COLOR(pgm_read_byte(buffer + index + 35));
    2992:	b9 01       	movw	r22, r18
    2994:	6d 5d       	subi	r22, 0xDD	; 221
    2996:	7f 4f       	sbci	r23, 0xFF	; 255
    2998:	e0 91 00 01 	lds	r30, 0x0100	; 0x800100 <_edata>
    299c:	f0 91 01 01 	lds	r31, 0x0101	; 0x800101 <_edata+0x1>
    29a0:	e6 0f       	add	r30, r22
    29a2:	f7 1f       	adc	r31, r23
    29a4:	e4 91       	lpm	r30, Z
    29a6:	6b b1       	in	r22, 0x0b	; 11
    29a8:	74 e0       	ldi	r23, 0x04	; 4
    29aa:	e7 9f       	mul	r30, r23
    29ac:	f0 01       	movw	r30, r0
    29ae:	11 24       	eor	r1, r1
    29b0:	63 70       	andi	r22, 0x03	; 3
    29b2:	e6 2b       	or	r30, r22
    29b4:	eb b9       	out	0x0b, r30	; 11
            PWCLK_GCLK;
    29b6:	65 b1       	in	r22, 0x05	; 5
    29b8:	6a 60       	ori	r22, 0x0A	; 10
    29ba:	65 b9       	out	0x05, r22	; 5
    29bc:	65 b1       	in	r22, 0x05	; 5
    29be:	65 7f       	andi	r22, 0xF5	; 245
    29c0:	65 b9       	out	0x05, r22	; 5
            PWCLK_GCLK;
    29c2:	65 b1       	in	r22, 0x05	; 5
    29c4:	6a 60       	ori	r22, 0x0A	; 10
    29c6:	65 b9       	out	0x05, r22	; 5
    29c8:	65 b1       	in	r22, 0x05	; 5
    29ca:	65 7f       	andi	r22, 0xF5	; 245
    29cc:	65 b9       	out	0x05, r22	; 5
            SET_COLOR(pgm_read_byte(buffer + index + 36));
    29ce:	b9 01       	movw	r22, r18
    29d0:	6c 5d       	subi	r22, 0xDC	; 220
    29d2:	7f 4f       	sbci	r23, 0xFF	; 255
    29d4:	e0 91 00 01 	lds	r30, 0x0100	; 0x800100 <_edata>
    29d8:	f0 91 01 01 	lds	r31, 0x0101	; 0x800101 <_edata+0x1>
    29dc:	e6 0f       	add	r30, r22
    29de:	f7 1f       	adc	r31, r23
    29e0:	e4 91       	lpm	r30, Z
    29e2:	6b b1       	in	r22, 0x0b	; 11
    29e4:	74 e0       	ldi	r23, 0x04	; 4
    29e6:	e7 9f       	mul	r30, r23
    29e8:	f0 01       	movw	r30, r0
    29ea:	11 24       	eor	r1, r1
    29ec:	63 70       	andi	r22, 0x03	; 3
    29ee:	e6 2b       	or	r30, r22
    29f0:	eb b9       	out	0x0b, r30	; 11
            PWCLK_GCLK;
    29f2:	65 b1       	in	r22, 0x05	; 5
    29f4:	6a 60       	ori	r22, 0x0A	; 10
    29f6:	65 b9       	out	0x05, r22	; 5
    29f8:	65 b1       	in	r22, 0x05	; 5
    29fa:	65 7f       	andi	r22, 0xF5	; 245
    29fc:	65 b9       	out	0x05, r22	; 5
            PWCLK_GCLK;
    29fe:	65 b1       	in	r22, 0x05	; 5
    2a00:	6a 60       	ori	r22, 0x0A	; 10
    2a02:	65 b9       	out	0x05, r22	; 5
    2a04:	65 b1       	in	r22, 0x05	; 5
    2a06:	65 7f       	andi	r22, 0xF5	; 245
    2a08:	65 b9       	out	0x05, r22	; 5
            SET_COLOR(pgm_read_byte(buffer + index + 37));
    2a0a:	b9 01       	movw	r22, r18
    2a0c:	6b 5d       	subi	r22, 0xDB	; 219
    2a0e:	7f 4f       	sbci	r23, 0xFF	; 255
    2a10:	e0 91 00 01 	lds	r30, 0x0100	; 0x800100 <_edata>
    2a14:	f0 91 01 01 	lds	r31, 0x0101	; 0x800101 <_edata+0x1>
    2a18:	e6 0f       	add	r30, r22
    2a1a:	f7 1f       	adc	r31, r23
    2a1c:	e4 91       	lpm	r30, Z
    2a1e:	6b b1       	in	r22, 0x0b	; 11
    2a20:	74 e0       	ldi	r23, 0x04	; 4
    2a22:	e7 9f       	mul	r30, r23
    2a24:	f0 01       	movw	r30, r0
    2a26:	11 24       	eor	r1, r1
    2a28:	63 70       	andi	r22, 0x03	; 3
    2a2a:	e6 2b       	or	r30, r22
    2a2c:	eb b9       	out	0x0b, r30	; 11
            PWCLK_GCLK;
    2a2e:	65 b1       	in	r22, 0x05	; 5
    2a30:	6a 60       	ori	r22, 0x0A	; 10
    2a32:	65 b9       	out	0x05, r22	; 5
    2a34:	65 b1       	in	r22, 0x05	; 5
    2a36:	65 7f       	andi	r22, 0xF5	; 245
    2a38:	65 b9       	out	0x05, r22	; 5
            PWCLK_GCLK;
    2a3a:	65 b1       	in	r22, 0x05	; 5
    2a3c:	6a 60       	ori	r22, 0x0A	; 10
    2a3e:	65 b9       	out	0x05, r22	; 5
    2a40:	65 b1       	in	r22, 0x05	; 5
    2a42:	65 7f       	andi	r22, 0xF5	; 245
    2a44:	65 b9       	out	0x05, r22	; 5
            SET_COLOR(pgm_read_byte(buffer + index + 38));
    2a46:	b9 01       	movw	r22, r18
    2a48:	6a 5d       	subi	r22, 0xDA	; 218
    2a4a:	7f 4f       	sbci	r23, 0xFF	; 255
    2a4c:	e0 91 00 01 	lds	r30, 0x0100	; 0x800100 <_edata>
    2a50:	f0 91 01 01 	lds	r31, 0x0101	; 0x800101 <_edata+0x1>
    2a54:	e6 0f       	add	r30, r22
    2a56:	f7 1f       	adc	r31, r23
    2a58:	e4 91       	lpm	r30, Z
    2a5a:	6b b1       	in	r22, 0x0b	; 11
    2a5c:	74 e0       	ldi	r23, 0x04	; 4
    2a5e:	e7 9f       	mul	r30, r23
    2a60:	f0 01       	movw	r30, r0
    2a62:	11 24       	eor	r1, r1
    2a64:	63 70       	andi	r22, 0x03	; 3
    2a66:	e6 2b       	or	r30, r22
    2a68:	eb b9       	out	0x0b, r30	; 11
            PWCLK_GCLK;
    2a6a:	65 b1       	in	r22, 0x05	; 5
    2a6c:	6a 60       	ori	r22, 0x0A	; 10
    2a6e:	65 b9       	out	0x05, r22	; 5
    2a70:	65 b1       	in	r22, 0x05	; 5
    2a72:	65 7f       	andi	r22, 0xF5	; 245
    2a74:	65 b9       	out	0x05, r22	; 5
            PWCLK_GCLK;
    2a76:	65 b1       	in	r22, 0x05	; 5
    2a78:	6a 60       	ori	r22, 0x0A	; 10
    2a7a:	65 b9       	out	0x05, r22	; 5
    2a7c:	65 b1       	in	r22, 0x05	; 5
    2a7e:	65 7f       	andi	r22, 0xF5	; 245
    2a80:	65 b9       	out	0x05, r22	; 5
            SET_COLOR(pgm_read_byte(buffer + index + 39));
    2a82:	b9 01       	movw	r22, r18
    2a84:	69 5d       	subi	r22, 0xD9	; 217
    2a86:	7f 4f       	sbci	r23, 0xFF	; 255
    2a88:	e0 91 00 01 	lds	r30, 0x0100	; 0x800100 <_edata>
    2a8c:	f0 91 01 01 	lds	r31, 0x0101	; 0x800101 <_edata+0x1>
    2a90:	e6 0f       	add	r30, r22
    2a92:	f7 1f       	adc	r31, r23
    2a94:	e4 91       	lpm	r30, Z
    2a96:	6b b1       	in	r22, 0x0b	; 11
    2a98:	74 e0       	ldi	r23, 0x04	; 4
    2a9a:	e7 9f       	mul	r30, r23
    2a9c:	f0 01       	movw	r30, r0
    2a9e:	11 24       	eor	r1, r1
    2aa0:	63 70       	andi	r22, 0x03	; 3
    2aa2:	e6 2b       	or	r30, r22
    2aa4:	eb b9       	out	0x0b, r30	; 11
            PWCLK_GCLK;
    2aa6:	65 b1       	in	r22, 0x05	; 5
    2aa8:	6a 60       	ori	r22, 0x0A	; 10
    2aaa:	65 b9       	out	0x05, r22	; 5
    2aac:	65 b1       	in	r22, 0x05	; 5
    2aae:	65 7f       	andi	r22, 0xF5	; 245
    2ab0:	65 b9       	out	0x05, r22	; 5
            PWCLK_GCLK;
    2ab2:	65 b1       	in	r22, 0x05	; 5
    2ab4:	6a 60       	ori	r22, 0x0A	; 10
    2ab6:	65 b9       	out	0x05, r22	; 5
    2ab8:	65 b1       	in	r22, 0x05	; 5
    2aba:	65 7f       	andi	r22, 0xF5	; 245
    2abc:	65 b9       	out	0x05, r22	; 5

            // chip 5
            SET_COLOR(pgm_read_byte(buffer + index + 40));
    2abe:	b9 01       	movw	r22, r18
    2ac0:	68 5d       	subi	r22, 0xD8	; 216
    2ac2:	7f 4f       	sbci	r23, 0xFF	; 255
    2ac4:	e0 91 00 01 	lds	r30, 0x0100	; 0x800100 <_edata>
    2ac8:	f0 91 01 01 	lds	r31, 0x0101	; 0x800101 <_edata+0x1>
    2acc:	e6 0f       	add	r30, r22
    2ace:	f7 1f       	adc	r31, r23
    2ad0:	e4 91       	lpm	r30, Z
    2ad2:	6b b1       	in	r22, 0x0b	; 11
    2ad4:	74 e0       	ldi	r23, 0x04	; 4
    2ad6:	e7 9f       	mul	r30, r23
    2ad8:	f0 01       	movw	r30, r0
    2ada:	11 24       	eor	r1, r1
    2adc:	63 70       	andi	r22, 0x03	; 3
    2ade:	e6 2b       	or	r30, r22
    2ae0:	eb b9       	out	0x0b, r30	; 11
            PWCLK_GCLK;
    2ae2:	65 b1       	in	r22, 0x05	; 5
    2ae4:	6a 60       	ori	r22, 0x0A	; 10
    2ae6:	65 b9       	out	0x05, r22	; 5
    2ae8:	65 b1       	in	r22, 0x05	; 5
    2aea:	65 7f       	andi	r22, 0xF5	; 245
    2aec:	65 b9       	out	0x05, r22	; 5
            PWCLK_GCLK;
    2aee:	65 b1       	in	r22, 0x05	; 5
    2af0:	6a 60       	ori	r22, 0x0A	; 10
    2af2:	65 b9       	out	0x05, r22	; 5
    2af4:	65 b1       	in	r22, 0x05	; 5
    2af6:	65 7f       	andi	r22, 0xF5	; 245
    2af8:	65 b9       	out	0x05, r22	; 5
            SET_COLOR(pgm_read_byte(buffer + index + 41));
    2afa:	b9 01       	movw	r22, r18
    2afc:	67 5d       	subi	r22, 0xD7	; 215
    2afe:	7f 4f       	sbci	r23, 0xFF	; 255
    2b00:	e0 91 00 01 	lds	r30, 0x0100	; 0x800100 <_edata>
    2b04:	f0 91 01 01 	lds	r31, 0x0101	; 0x800101 <_edata+0x1>
    2b08:	e6 0f       	add	r30, r22
    2b0a:	f7 1f       	adc	r31, r23
    2b0c:	e4 91       	lpm	r30, Z
    2b0e:	6b b1       	in	r22, 0x0b	; 11
    2b10:	74 e0       	ldi	r23, 0x04	; 4
    2b12:	e7 9f       	mul	r30, r23
    2b14:	f0 01       	movw	r30, r0
    2b16:	11 24       	eor	r1, r1
    2b18:	63 70       	andi	r22, 0x03	; 3
    2b1a:	e6 2b       	or	r30, r22
    2b1c:	eb b9       	out	0x0b, r30	; 11
            PWCLK_GCLK;
    2b1e:	65 b1       	in	r22, 0x05	; 5
    2b20:	6a 60       	ori	r22, 0x0A	; 10
    2b22:	65 b9       	out	0x05, r22	; 5
    2b24:	65 b1       	in	r22, 0x05	; 5
    2b26:	65 7f       	andi	r22, 0xF5	; 245
    2b28:	65 b9       	out	0x05, r22	; 5
            PWCLK_GCLK;
    2b2a:	65 b1       	in	r22, 0x05	; 5
    2b2c:	6a 60       	ori	r22, 0x0A	; 10
    2b2e:	65 b9       	out	0x05, r22	; 5
    2b30:	65 b1       	in	r22, 0x05	; 5
    2b32:	65 7f       	andi	r22, 0xF5	; 245
    2b34:	65 b9       	out	0x05, r22	; 5
            SET_COLOR(pgm_read_byte(buffer + index + 42));
    2b36:	b9 01       	movw	r22, r18
    2b38:	66 5d       	subi	r22, 0xD6	; 214
    2b3a:	7f 4f       	sbci	r23, 0xFF	; 255
    2b3c:	e0 91 00 01 	lds	r30, 0x0100	; 0x800100 <_edata>
    2b40:	f0 91 01 01 	lds	r31, 0x0101	; 0x800101 <_edata+0x1>
    2b44:	e6 0f       	add	r30, r22
    2b46:	f7 1f       	adc	r31, r23
    2b48:	e4 91       	lpm	r30, Z
    2b4a:	6b b1       	in	r22, 0x0b	; 11
    2b4c:	74 e0       	ldi	r23, 0x04	; 4
    2b4e:	e7 9f       	mul	r30, r23
    2b50:	f0 01       	movw	r30, r0
    2b52:	11 24       	eor	r1, r1
    2b54:	63 70       	andi	r22, 0x03	; 3
    2b56:	e6 2b       	or	r30, r22
    2b58:	eb b9       	out	0x0b, r30	; 11
            PWCLK_GCLK;
    2b5a:	65 b1       	in	r22, 0x05	; 5
    2b5c:	6a 60       	ori	r22, 0x0A	; 10
    2b5e:	65 b9       	out	0x05, r22	; 5
    2b60:	65 b1       	in	r22, 0x05	; 5
    2b62:	65 7f       	andi	r22, 0xF5	; 245
    2b64:	65 b9       	out	0x05, r22	; 5
            PWCLK_GCLK;
    2b66:	65 b1       	in	r22, 0x05	; 5
    2b68:	6a 60       	ori	r22, 0x0A	; 10
    2b6a:	65 b9       	out	0x05, r22	; 5
    2b6c:	65 b1       	in	r22, 0x05	; 5
    2b6e:	65 7f       	andi	r22, 0xF5	; 245
    2b70:	65 b9       	out	0x05, r22	; 5
            SET_COLOR(pgm_read_byte(buffer + index + 43));
    2b72:	b9 01       	movw	r22, r18
    2b74:	65 5d       	subi	r22, 0xD5	; 213
    2b76:	7f 4f       	sbci	r23, 0xFF	; 255
    2b78:	e0 91 00 01 	lds	r30, 0x0100	; 0x800100 <_edata>
    2b7c:	f0 91 01 01 	lds	r31, 0x0101	; 0x800101 <_edata+0x1>
    2b80:	e6 0f       	add	r30, r22
    2b82:	f7 1f       	adc	r31, r23
    2b84:	e4 91       	lpm	r30, Z
    2b86:	6b b1       	in	r22, 0x0b	; 11
    2b88:	74 e0       	ldi	r23, 0x04	; 4
    2b8a:	e7 9f       	mul	r30, r23
    2b8c:	f0 01       	movw	r30, r0
    2b8e:	11 24       	eor	r1, r1
    2b90:	63 70       	andi	r22, 0x03	; 3
    2b92:	e6 2b       	or	r30, r22
    2b94:	eb b9       	out	0x0b, r30	; 11
            PWCLK_GCLK;
    2b96:	65 b1       	in	r22, 0x05	; 5
    2b98:	6a 60       	ori	r22, 0x0A	; 10
    2b9a:	65 b9       	out	0x05, r22	; 5
    2b9c:	65 b1       	in	r22, 0x05	; 5
    2b9e:	65 7f       	andi	r22, 0xF5	; 245
    2ba0:	65 b9       	out	0x05, r22	; 5
            PWCLK_GCLK;
    2ba2:	65 b1       	in	r22, 0x05	; 5
    2ba4:	6a 60       	ori	r22, 0x0A	; 10
    2ba6:	65 b9       	out	0x05, r22	; 5
    2ba8:	65 b1       	in	r22, 0x05	; 5
    2baa:	65 7f       	andi	r22, 0xF5	; 245
    2bac:	65 b9       	out	0x05, r22	; 5
            SET_COLOR(pgm_read_byte(buffer + index + 44));
    2bae:	b9 01       	movw	r22, r18
    2bb0:	64 5d       	subi	r22, 0xD4	; 212
    2bb2:	7f 4f       	sbci	r23, 0xFF	; 255
    2bb4:	e0 91 00 01 	lds	r30, 0x0100	; 0x800100 <_edata>
    2bb8:	f0 91 01 01 	lds	r31, 0x0101	; 0x800101 <_edata+0x1>
    2bbc:	e6 0f       	add	r30, r22
    2bbe:	f7 1f       	adc	r31, r23
    2bc0:	e4 91       	lpm	r30, Z
    2bc2:	6b b1       	in	r22, 0x0b	; 11
    2bc4:	74 e0       	ldi	r23, 0x04	; 4
    2bc6:	e7 9f       	mul	r30, r23
    2bc8:	f0 01       	movw	r30, r0
    2bca:	11 24       	eor	r1, r1
    2bcc:	63 70       	andi	r22, 0x03	; 3
    2bce:	e6 2b       	or	r30, r22
    2bd0:	eb b9       	out	0x0b, r30	; 11
            PWCLK_GCLK;
    2bd2:	65 b1       	in	r22, 0x05	; 5
    2bd4:	6a 60       	ori	r22, 0x0A	; 10
    2bd6:	65 b9       	out	0x05, r22	; 5
    2bd8:	65 b1       	in	r22, 0x05	; 5
    2bda:	65 7f       	andi	r22, 0xF5	; 245
    2bdc:	65 b9       	out	0x05, r22	; 5
            PWCLK_GCLK;
    2bde:	65 b1       	in	r22, 0x05	; 5
    2be0:	6a 60       	ori	r22, 0x0A	; 10
    2be2:	65 b9       	out	0x05, r22	; 5
    2be4:	65 b1       	in	r22, 0x05	; 5
    2be6:	65 7f       	andi	r22, 0xF5	; 245
    2be8:	65 b9       	out	0x05, r22	; 5
            SET_COLOR(pgm_read_byte(buffer + index + 45));
    2bea:	b9 01       	movw	r22, r18
    2bec:	63 5d       	subi	r22, 0xD3	; 211
    2bee:	7f 4f       	sbci	r23, 0xFF	; 255
    2bf0:	e0 91 00 01 	lds	r30, 0x0100	; 0x800100 <_edata>
    2bf4:	f0 91 01 01 	lds	r31, 0x0101	; 0x800101 <_edata+0x1>
    2bf8:	e6 0f       	add	r30, r22
    2bfa:	f7 1f       	adc	r31, r23
    2bfc:	e4 91       	lpm	r30, Z
    2bfe:	6b b1       	in	r22, 0x0b	; 11
    2c00:	74 e0       	ldi	r23, 0x04	; 4
    2c02:	e7 9f       	mul	r30, r23
    2c04:	f0 01       	movw	r30, r0
    2c06:	11 24       	eor	r1, r1
    2c08:	63 70       	andi	r22, 0x03	; 3
    2c0a:	e6 2b       	or	r30, r22
    2c0c:	eb b9       	out	0x0b, r30	; 11
            PWCLK_GCLK;
    2c0e:	65 b1       	in	r22, 0x05	; 5
    2c10:	6a 60       	ori	r22, 0x0A	; 10
    2c12:	65 b9       	out	0x05, r22	; 5
    2c14:	65 b1       	in	r22, 0x05	; 5
    2c16:	65 7f       	andi	r22, 0xF5	; 245
    2c18:	65 b9       	out	0x05, r22	; 5
            PWCLK_GCLK;
    2c1a:	65 b1       	in	r22, 0x05	; 5
    2c1c:	6a 60       	ori	r22, 0x0A	; 10
    2c1e:	65 b9       	out	0x05, r22	; 5
    2c20:	65 b1       	in	r22, 0x05	; 5
    2c22:	65 7f       	andi	r22, 0xF5	; 245
    2c24:	65 b9       	out	0x05, r22	; 5
            SET_COLOR(pgm_read_byte(buffer + index + 46));
    2c26:	b9 01       	movw	r22, r18
    2c28:	62 5d       	subi	r22, 0xD2	; 210
    2c2a:	7f 4f       	sbci	r23, 0xFF	; 255
    2c2c:	e0 91 00 01 	lds	r30, 0x0100	; 0x800100 <_edata>
    2c30:	f0 91 01 01 	lds	r31, 0x0101	; 0x800101 <_edata+0x1>
    2c34:	e6 0f       	add	r30, r22
    2c36:	f7 1f       	adc	r31, r23
    2c38:	e4 91       	lpm	r30, Z
    2c3a:	6b b1       	in	r22, 0x0b	; 11
    2c3c:	74 e0       	ldi	r23, 0x04	; 4
    2c3e:	e7 9f       	mul	r30, r23
    2c40:	f0 01       	movw	r30, r0
    2c42:	11 24       	eor	r1, r1
    2c44:	63 70       	andi	r22, 0x03	; 3
    2c46:	e6 2b       	or	r30, r22
    2c48:	eb b9       	out	0x0b, r30	; 11
            PWCLK_GCLK;
    2c4a:	65 b1       	in	r22, 0x05	; 5
    2c4c:	6a 60       	ori	r22, 0x0A	; 10
    2c4e:	65 b9       	out	0x05, r22	; 5
    2c50:	65 b1       	in	r22, 0x05	; 5
    2c52:	65 7f       	andi	r22, 0xF5	; 245
    2c54:	65 b9       	out	0x05, r22	; 5
            PWCLK_GCLK;
    2c56:	65 b1       	in	r22, 0x05	; 5
    2c58:	6a 60       	ori	r22, 0x0A	; 10
    2c5a:	65 b9       	out	0x05, r22	; 5
    2c5c:	65 b1       	in	r22, 0x05	; 5
    2c5e:	65 7f       	andi	r22, 0xF5	; 245
    2c60:	65 b9       	out	0x05, r22	; 5
            SET_COLOR(pgm_read_byte(buffer + index + 47));
    2c62:	b9 01       	movw	r22, r18
    2c64:	61 5d       	subi	r22, 0xD1	; 209
    2c66:	7f 4f       	sbci	r23, 0xFF	; 255
    2c68:	e0 91 00 01 	lds	r30, 0x0100	; 0x800100 <_edata>
    2c6c:	f0 91 01 01 	lds	r31, 0x0101	; 0x800101 <_edata+0x1>
    2c70:	e6 0f       	add	r30, r22
    2c72:	f7 1f       	adc	r31, r23
    2c74:	e4 91       	lpm	r30, Z
    2c76:	6b b1       	in	r22, 0x0b	; 11
    2c78:	74 e0       	ldi	r23, 0x04	; 4
    2c7a:	e7 9f       	mul	r30, r23
    2c7c:	f0 01       	movw	r30, r0
    2c7e:	11 24       	eor	r1, r1
    2c80:	63 70       	andi	r22, 0x03	; 3
    2c82:	e6 2b       	or	r30, r22
    2c84:	eb b9       	out	0x0b, r30	; 11
            PWCLK_GCLK;
    2c86:	65 b1       	in	r22, 0x05	; 5
    2c88:	6a 60       	ori	r22, 0x0A	; 10
    2c8a:	65 b9       	out	0x05, r22	; 5
    2c8c:	65 b1       	in	r22, 0x05	; 5
    2c8e:	65 7f       	andi	r22, 0xF5	; 245
    2c90:	65 b9       	out	0x05, r22	; 5
            PWCLK_GCLK;
    2c92:	65 b1       	in	r22, 0x05	; 5
    2c94:	6a 60       	ori	r22, 0x0A	; 10
    2c96:	65 b9       	out	0x05, r22	; 5
    2c98:	65 b1       	in	r22, 0x05	; 5
    2c9a:	65 7f       	andi	r22, 0xF5	; 245
    2c9c:	65 b9       	out	0x05, r22	; 5

            // chip 6
            SET_COLOR(pgm_read_byte(buffer + index + 48));
    2c9e:	b9 01       	movw	r22, r18
    2ca0:	60 5d       	subi	r22, 0xD0	; 208
    2ca2:	7f 4f       	sbci	r23, 0xFF	; 255
    2ca4:	e0 91 00 01 	lds	r30, 0x0100	; 0x800100 <_edata>
    2ca8:	f0 91 01 01 	lds	r31, 0x0101	; 0x800101 <_edata+0x1>
    2cac:	e6 0f       	add	r30, r22
    2cae:	f7 1f       	adc	r31, r23
    2cb0:	e4 91       	lpm	r30, Z
    2cb2:	6b b1       	in	r22, 0x0b	; 11
    2cb4:	74 e0       	ldi	r23, 0x04	; 4
    2cb6:	e7 9f       	mul	r30, r23
    2cb8:	f0 01       	movw	r30, r0
    2cba:	11 24       	eor	r1, r1
    2cbc:	63 70       	andi	r22, 0x03	; 3
    2cbe:	e6 2b       	or	r30, r22
    2cc0:	eb b9       	out	0x0b, r30	; 11
            PWCLK_GCLK;
    2cc2:	65 b1       	in	r22, 0x05	; 5
    2cc4:	6a 60       	ori	r22, 0x0A	; 10
    2cc6:	65 b9       	out	0x05, r22	; 5
    2cc8:	65 b1       	in	r22, 0x05	; 5
    2cca:	65 7f       	andi	r22, 0xF5	; 245
    2ccc:	65 b9       	out	0x05, r22	; 5
            PWCLK_GCLK;
    2cce:	65 b1       	in	r22, 0x05	; 5
    2cd0:	6a 60       	ori	r22, 0x0A	; 10
    2cd2:	65 b9       	out	0x05, r22	; 5
    2cd4:	65 b1       	in	r22, 0x05	; 5
    2cd6:	65 7f       	andi	r22, 0xF5	; 245
    2cd8:	65 b9       	out	0x05, r22	; 5
            SET_COLOR(pgm_read_byte(buffer + index + 49));
    2cda:	b9 01       	movw	r22, r18
    2cdc:	6f 5c       	subi	r22, 0xCF	; 207
    2cde:	7f 4f       	sbci	r23, 0xFF	; 255
    2ce0:	e0 91 00 01 	lds	r30, 0x0100	; 0x800100 <_edata>
    2ce4:	f0 91 01 01 	lds	r31, 0x0101	; 0x800101 <_edata+0x1>
    2ce8:	e6 0f       	add	r30, r22
    2cea:	f7 1f       	adc	r31, r23
    2cec:	e4 91       	lpm	r30, Z
    2cee:	6b b1       	in	r22, 0x0b	; 11
    2cf0:	74 e0       	ldi	r23, 0x04	; 4
    2cf2:	e7 9f       	mul	r30, r23
    2cf4:	f0 01       	movw	r30, r0
    2cf6:	11 24       	eor	r1, r1
    2cf8:	63 70       	andi	r22, 0x03	; 3
    2cfa:	e6 2b       	or	r30, r22
    2cfc:	eb b9       	out	0x0b, r30	; 11
            PWCLK_GCLK;
    2cfe:	65 b1       	in	r22, 0x05	; 5
    2d00:	6a 60       	ori	r22, 0x0A	; 10
    2d02:	65 b9       	out	0x05, r22	; 5
    2d04:	65 b1       	in	r22, 0x05	; 5
    2d06:	65 7f       	andi	r22, 0xF5	; 245
    2d08:	65 b9       	out	0x05, r22	; 5
            PWCLK_GCLK;
    2d0a:	65 b1       	in	r22, 0x05	; 5
    2d0c:	6a 60       	ori	r22, 0x0A	; 10
    2d0e:	65 b9       	out	0x05, r22	; 5
    2d10:	65 b1       	in	r22, 0x05	; 5
    2d12:	65 7f       	andi	r22, 0xF5	; 245
    2d14:	65 b9       	out	0x05, r22	; 5
            SET_COLOR(pgm_read_byte(buffer + index + 50));
    2d16:	b9 01       	movw	r22, r18
    2d18:	6e 5c       	subi	r22, 0xCE	; 206
    2d1a:	7f 4f       	sbci	r23, 0xFF	; 255
    2d1c:	e0 91 00 01 	lds	r30, 0x0100	; 0x800100 <_edata>
    2d20:	f0 91 01 01 	lds	r31, 0x0101	; 0x800101 <_edata+0x1>
    2d24:	e6 0f       	add	r30, r22
    2d26:	f7 1f       	adc	r31, r23
    2d28:	e4 91       	lpm	r30, Z
    2d2a:	6b b1       	in	r22, 0x0b	; 11
    2d2c:	74 e0       	ldi	r23, 0x04	; 4
    2d2e:	e7 9f       	mul	r30, r23
    2d30:	f0 01       	movw	r30, r0
    2d32:	11 24       	eor	r1, r1
    2d34:	63 70       	andi	r22, 0x03	; 3
    2d36:	e6 2b       	or	r30, r22
    2d38:	eb b9       	out	0x0b, r30	; 11
            PWCLK_GCLK;
    2d3a:	65 b1       	in	r22, 0x05	; 5
    2d3c:	6a 60       	ori	r22, 0x0A	; 10
    2d3e:	65 b9       	out	0x05, r22	; 5
    2d40:	65 b1       	in	r22, 0x05	; 5
    2d42:	65 7f       	andi	r22, 0xF5	; 245
    2d44:	65 b9       	out	0x05, r22	; 5
            PWCLK_GCLK;
    2d46:	65 b1       	in	r22, 0x05	; 5
    2d48:	6a 60       	ori	r22, 0x0A	; 10
    2d4a:	65 b9       	out	0x05, r22	; 5
    2d4c:	65 b1       	in	r22, 0x05	; 5
    2d4e:	65 7f       	andi	r22, 0xF5	; 245
    2d50:	65 b9       	out	0x05, r22	; 5
            SET_COLOR(pgm_read_byte(buffer + index + 51));
    2d52:	b9 01       	movw	r22, r18
    2d54:	6d 5c       	subi	r22, 0xCD	; 205
    2d56:	7f 4f       	sbci	r23, 0xFF	; 255
    2d58:	e0 91 00 01 	lds	r30, 0x0100	; 0x800100 <_edata>
    2d5c:	f0 91 01 01 	lds	r31, 0x0101	; 0x800101 <_edata+0x1>
    2d60:	e6 0f       	add	r30, r22
    2d62:	f7 1f       	adc	r31, r23
    2d64:	e4 91       	lpm	r30, Z
    2d66:	6b b1       	in	r22, 0x0b	; 11
    2d68:	74 e0       	ldi	r23, 0x04	; 4
    2d6a:	e7 9f       	mul	r30, r23
    2d6c:	f0 01       	movw	r30, r0
    2d6e:	11 24       	eor	r1, r1
    2d70:	63 70       	andi	r22, 0x03	; 3
    2d72:	e6 2b       	or	r30, r22
    2d74:	eb b9       	out	0x0b, r30	; 11
            PWCLK_GCLK;
    2d76:	65 b1       	in	r22, 0x05	; 5
    2d78:	6a 60       	ori	r22, 0x0A	; 10
    2d7a:	65 b9       	out	0x05, r22	; 5
    2d7c:	65 b1       	in	r22, 0x05	; 5
    2d7e:	65 7f       	andi	r22, 0xF5	; 245
    2d80:	65 b9       	out	0x05, r22	; 5
            PWCLK_GCLK;
    2d82:	65 b1       	in	r22, 0x05	; 5
    2d84:	6a 60       	ori	r22, 0x0A	; 10
    2d86:	65 b9       	out	0x05, r22	; 5
    2d88:	65 b1       	in	r22, 0x05	; 5
    2d8a:	65 7f       	andi	r22, 0xF5	; 245
    2d8c:	65 b9       	out	0x05, r22	; 5
            SET_COLOR(pgm_read_byte(buffer + index + 52));
    2d8e:	b9 01       	movw	r22, r18
    2d90:	6c 5c       	subi	r22, 0xCC	; 204
    2d92:	7f 4f       	sbci	r23, 0xFF	; 255
    2d94:	e0 91 00 01 	lds	r30, 0x0100	; 0x800100 <_edata>
    2d98:	f0 91 01 01 	lds	r31, 0x0101	; 0x800101 <_edata+0x1>
    2d9c:	e6 0f       	add	r30, r22
    2d9e:	f7 1f       	adc	r31, r23
    2da0:	e4 91       	lpm	r30, Z
    2da2:	6b b1       	in	r22, 0x0b	; 11
    2da4:	74 e0       	ldi	r23, 0x04	; 4
    2da6:	e7 9f       	mul	r30, r23
    2da8:	f0 01       	movw	r30, r0
    2daa:	11 24       	eor	r1, r1
    2dac:	63 70       	andi	r22, 0x03	; 3
    2dae:	e6 2b       	or	r30, r22
    2db0:	eb b9       	out	0x0b, r30	; 11
            PWCLK_GCLK;
    2db2:	65 b1       	in	r22, 0x05	; 5
    2db4:	6a 60       	ori	r22, 0x0A	; 10
    2db6:	65 b9       	out	0x05, r22	; 5
    2db8:	65 b1       	in	r22, 0x05	; 5
    2dba:	65 7f       	andi	r22, 0xF5	; 245
    2dbc:	65 b9       	out	0x05, r22	; 5
            PWCLK_GCLK;
    2dbe:	65 b1       	in	r22, 0x05	; 5
    2dc0:	6a 60       	ori	r22, 0x0A	; 10
    2dc2:	65 b9       	out	0x05, r22	; 5
    2dc4:	65 b1       	in	r22, 0x05	; 5
    2dc6:	65 7f       	andi	r22, 0xF5	; 245
    2dc8:	65 b9       	out	0x05, r22	; 5
            SET_COLOR(pgm_read_byte(buffer + index + 53));
    2dca:	b9 01       	movw	r22, r18
    2dcc:	6b 5c       	subi	r22, 0xCB	; 203
    2dce:	7f 4f       	sbci	r23, 0xFF	; 255
    2dd0:	e0 91 00 01 	lds	r30, 0x0100	; 0x800100 <_edata>
    2dd4:	f0 91 01 01 	lds	r31, 0x0101	; 0x800101 <_edata+0x1>
    2dd8:	e6 0f       	add	r30, r22
    2dda:	f7 1f       	adc	r31, r23
    2ddc:	e4 91       	lpm	r30, Z
    2dde:	6b b1       	in	r22, 0x0b	; 11
    2de0:	74 e0       	ldi	r23, 0x04	; 4
    2de2:	e7 9f       	mul	r30, r23
    2de4:	f0 01       	movw	r30, r0
    2de6:	11 24       	eor	r1, r1
    2de8:	63 70       	andi	r22, 0x03	; 3
    2dea:	e6 2b       	or	r30, r22
    2dec:	eb b9       	out	0x0b, r30	; 11
            PWCLK_GCLK;
    2dee:	65 b1       	in	r22, 0x05	; 5
    2df0:	6a 60       	ori	r22, 0x0A	; 10
    2df2:	65 b9       	out	0x05, r22	; 5
    2df4:	65 b1       	in	r22, 0x05	; 5
    2df6:	65 7f       	andi	r22, 0xF5	; 245
    2df8:	65 b9       	out	0x05, r22	; 5
            PWCLK_GCLK;
    2dfa:	65 b1       	in	r22, 0x05	; 5
    2dfc:	6a 60       	ori	r22, 0x0A	; 10
    2dfe:	65 b9       	out	0x05, r22	; 5
    2e00:	65 b1       	in	r22, 0x05	; 5
    2e02:	65 7f       	andi	r22, 0xF5	; 245
    2e04:	65 b9       	out	0x05, r22	; 5
            SET_COLOR(pgm_read_byte(buffer + index + 54));
    2e06:	b9 01       	movw	r22, r18
    2e08:	6a 5c       	subi	r22, 0xCA	; 202
    2e0a:	7f 4f       	sbci	r23, 0xFF	; 255
    2e0c:	e0 91 00 01 	lds	r30, 0x0100	; 0x800100 <_edata>
    2e10:	f0 91 01 01 	lds	r31, 0x0101	; 0x800101 <_edata+0x1>
    2e14:	e6 0f       	add	r30, r22
    2e16:	f7 1f       	adc	r31, r23
    2e18:	e4 91       	lpm	r30, Z
    2e1a:	6b b1       	in	r22, 0x0b	; 11
    2e1c:	74 e0       	ldi	r23, 0x04	; 4
    2e1e:	e7 9f       	mul	r30, r23
    2e20:	f0 01       	movw	r30, r0
    2e22:	11 24       	eor	r1, r1
    2e24:	63 70       	andi	r22, 0x03	; 3
    2e26:	e6 2b       	or	r30, r22
    2e28:	eb b9       	out	0x0b, r30	; 11
            PWCLK_GCLK;
    2e2a:	65 b1       	in	r22, 0x05	; 5
    2e2c:	6a 60       	ori	r22, 0x0A	; 10
    2e2e:	65 b9       	out	0x05, r22	; 5
    2e30:	65 b1       	in	r22, 0x05	; 5
    2e32:	65 7f       	andi	r22, 0xF5	; 245
    2e34:	65 b9       	out	0x05, r22	; 5
            PWCLK_GCLK;
    2e36:	65 b1       	in	r22, 0x05	; 5
    2e38:	6a 60       	ori	r22, 0x0A	; 10
    2e3a:	65 b9       	out	0x05, r22	; 5
    2e3c:	65 b1       	in	r22, 0x05	; 5
    2e3e:	65 7f       	andi	r22, 0xF5	; 245
    2e40:	65 b9       	out	0x05, r22	; 5
            SET_COLOR(pgm_read_byte(buffer + index + 55));
    2e42:	b9 01       	movw	r22, r18
    2e44:	69 5c       	subi	r22, 0xC9	; 201
    2e46:	7f 4f       	sbci	r23, 0xFF	; 255
    2e48:	e0 91 00 01 	lds	r30, 0x0100	; 0x800100 <_edata>
    2e4c:	f0 91 01 01 	lds	r31, 0x0101	; 0x800101 <_edata+0x1>
    2e50:	e6 0f       	add	r30, r22
    2e52:	f7 1f       	adc	r31, r23
    2e54:	e4 91       	lpm	r30, Z
    2e56:	6b b1       	in	r22, 0x0b	; 11
    2e58:	74 e0       	ldi	r23, 0x04	; 4
    2e5a:	e7 9f       	mul	r30, r23
    2e5c:	f0 01       	movw	r30, r0
    2e5e:	11 24       	eor	r1, r1
    2e60:	63 70       	andi	r22, 0x03	; 3
    2e62:	e6 2b       	or	r30, r22
    2e64:	eb b9       	out	0x0b, r30	; 11
            PWCLK_GCLK;
    2e66:	65 b1       	in	r22, 0x05	; 5
    2e68:	6a 60       	ori	r22, 0x0A	; 10
    2e6a:	65 b9       	out	0x05, r22	; 5
    2e6c:	65 b1       	in	r22, 0x05	; 5
    2e6e:	65 7f       	andi	r22, 0xF5	; 245
    2e70:	65 b9       	out	0x05, r22	; 5
            PWCLK_GCLK;
    2e72:	65 b1       	in	r22, 0x05	; 5
    2e74:	6a 60       	ori	r22, 0x0A	; 10
    2e76:	65 b9       	out	0x05, r22	; 5
    2e78:	65 b1       	in	r22, 0x05	; 5
    2e7a:	65 7f       	andi	r22, 0xF5	; 245
    2e7c:	65 b9       	out	0x05, r22	; 5

            // chip 7
            SET_COLOR(pgm_read_byte(buffer + index + 56));
    2e7e:	b9 01       	movw	r22, r18
    2e80:	68 5c       	subi	r22, 0xC8	; 200
    2e82:	7f 4f       	sbci	r23, 0xFF	; 255
    2e84:	e0 91 00 01 	lds	r30, 0x0100	; 0x800100 <_edata>
    2e88:	f0 91 01 01 	lds	r31, 0x0101	; 0x800101 <_edata+0x1>
    2e8c:	e6 0f       	add	r30, r22
    2e8e:	f7 1f       	adc	r31, r23
    2e90:	e4 91       	lpm	r30, Z
    2e92:	6b b1       	in	r22, 0x0b	; 11
    2e94:	74 e0       	ldi	r23, 0x04	; 4
    2e96:	e7 9f       	mul	r30, r23
    2e98:	f0 01       	movw	r30, r0
    2e9a:	11 24       	eor	r1, r1
    2e9c:	63 70       	andi	r22, 0x03	; 3
    2e9e:	e6 2b       	or	r30, r22
    2ea0:	eb b9       	out	0x0b, r30	; 11
            PWCLK_GCLK;
    2ea2:	65 b1       	in	r22, 0x05	; 5
    2ea4:	6a 60       	ori	r22, 0x0A	; 10
    2ea6:	65 b9       	out	0x05, r22	; 5
    2ea8:	65 b1       	in	r22, 0x05	; 5
    2eaa:	65 7f       	andi	r22, 0xF5	; 245
    2eac:	65 b9       	out	0x05, r22	; 5
            PWCLK_GCLK;
    2eae:	65 b1       	in	r22, 0x05	; 5
    2eb0:	6a 60       	ori	r22, 0x0A	; 10
    2eb2:	65 b9       	out	0x05, r22	; 5
    2eb4:	65 b1       	in	r22, 0x05	; 5
    2eb6:	65 7f       	andi	r22, 0xF5	; 245
    2eb8:	65 b9       	out	0x05, r22	; 5
            SET_COLOR(pgm_read_byte(buffer + index + 57));
    2eba:	b9 01       	movw	r22, r18
    2ebc:	67 5c       	subi	r22, 0xC7	; 199
    2ebe:	7f 4f       	sbci	r23, 0xFF	; 255
    2ec0:	e0 91 00 01 	lds	r30, 0x0100	; 0x800100 <_edata>
    2ec4:	f0 91 01 01 	lds	r31, 0x0101	; 0x800101 <_edata+0x1>
    2ec8:	e6 0f       	add	r30, r22
    2eca:	f7 1f       	adc	r31, r23
    2ecc:	e4 91       	lpm	r30, Z
    2ece:	6b b1       	in	r22, 0x0b	; 11
    2ed0:	74 e0       	ldi	r23, 0x04	; 4
    2ed2:	e7 9f       	mul	r30, r23
    2ed4:	f0 01       	movw	r30, r0
    2ed6:	11 24       	eor	r1, r1
    2ed8:	63 70       	andi	r22, 0x03	; 3
    2eda:	e6 2b       	or	r30, r22
    2edc:	eb b9       	out	0x0b, r30	; 11
            PWCLK_GCLK;
    2ede:	65 b1       	in	r22, 0x05	; 5
    2ee0:	6a 60       	ori	r22, 0x0A	; 10
    2ee2:	65 b9       	out	0x05, r22	; 5
    2ee4:	65 b1       	in	r22, 0x05	; 5
    2ee6:	65 7f       	andi	r22, 0xF5	; 245
    2ee8:	65 b9       	out	0x05, r22	; 5
            PWCLK_GCLK;
    2eea:	65 b1       	in	r22, 0x05	; 5
    2eec:	6a 60       	ori	r22, 0x0A	; 10
    2eee:	65 b9       	out	0x05, r22	; 5
    2ef0:	65 b1       	in	r22, 0x05	; 5
    2ef2:	65 7f       	andi	r22, 0xF5	; 245
    2ef4:	65 b9       	out	0x05, r22	; 5
            SET_COLOR(pgm_read_byte(buffer + index + 58));
    2ef6:	b9 01       	movw	r22, r18
    2ef8:	66 5c       	subi	r22, 0xC6	; 198
    2efa:	7f 4f       	sbci	r23, 0xFF	; 255
    2efc:	e0 91 00 01 	lds	r30, 0x0100	; 0x800100 <_edata>
    2f00:	f0 91 01 01 	lds	r31, 0x0101	; 0x800101 <_edata+0x1>
    2f04:	e6 0f       	add	r30, r22
    2f06:	f7 1f       	adc	r31, r23
    2f08:	e4 91       	lpm	r30, Z
    2f0a:	6b b1       	in	r22, 0x0b	; 11
    2f0c:	74 e0       	ldi	r23, 0x04	; 4
    2f0e:	e7 9f       	mul	r30, r23
    2f10:	f0 01       	movw	r30, r0
    2f12:	11 24       	eor	r1, r1
    2f14:	63 70       	andi	r22, 0x03	; 3
    2f16:	e6 2b       	or	r30, r22
    2f18:	eb b9       	out	0x0b, r30	; 11
            PWCLK_GCLK;
    2f1a:	65 b1       	in	r22, 0x05	; 5
    2f1c:	6a 60       	ori	r22, 0x0A	; 10
    2f1e:	65 b9       	out	0x05, r22	; 5
    2f20:	65 b1       	in	r22, 0x05	; 5
    2f22:	65 7f       	andi	r22, 0xF5	; 245
    2f24:	65 b9       	out	0x05, r22	; 5
            PWCLK_GCLK;
    2f26:	65 b1       	in	r22, 0x05	; 5
    2f28:	6a 60       	ori	r22, 0x0A	; 10
    2f2a:	65 b9       	out	0x05, r22	; 5
    2f2c:	65 b1       	in	r22, 0x05	; 5
    2f2e:	65 7f       	andi	r22, 0xF5	; 245
    2f30:	65 b9       	out	0x05, r22	; 5
            SET_COLOR(pgm_read_byte(buffer + index + 59));
    2f32:	b9 01       	movw	r22, r18
    2f34:	65 5c       	subi	r22, 0xC5	; 197
    2f36:	7f 4f       	sbci	r23, 0xFF	; 255
    2f38:	e0 91 00 01 	lds	r30, 0x0100	; 0x800100 <_edata>
    2f3c:	f0 91 01 01 	lds	r31, 0x0101	; 0x800101 <_edata+0x1>
    2f40:	e6 0f       	add	r30, r22
    2f42:	f7 1f       	adc	r31, r23
    2f44:	e4 91       	lpm	r30, Z
    2f46:	6b b1       	in	r22, 0x0b	; 11
    2f48:	74 e0       	ldi	r23, 0x04	; 4
    2f4a:	e7 9f       	mul	r30, r23
    2f4c:	f0 01       	movw	r30, r0
    2f4e:	11 24       	eor	r1, r1
    2f50:	63 70       	andi	r22, 0x03	; 3
    2f52:	e6 2b       	or	r30, r22
    2f54:	eb b9       	out	0x0b, r30	; 11
            PWCLK_GCLK;
    2f56:	65 b1       	in	r22, 0x05	; 5
    2f58:	6a 60       	ori	r22, 0x0A	; 10
    2f5a:	65 b9       	out	0x05, r22	; 5
    2f5c:	65 b1       	in	r22, 0x05	; 5
    2f5e:	65 7f       	andi	r22, 0xF5	; 245
    2f60:	65 b9       	out	0x05, r22	; 5
            PWCLK_GCLK;
    2f62:	65 b1       	in	r22, 0x05	; 5
    2f64:	6a 60       	ori	r22, 0x0A	; 10
    2f66:	65 b9       	out	0x05, r22	; 5
    2f68:	65 b1       	in	r22, 0x05	; 5
    2f6a:	65 7f       	andi	r22, 0xF5	; 245
    2f6c:	65 b9       	out	0x05, r22	; 5
            SET_COLOR(pgm_read_byte(buffer + index + 60));
    2f6e:	b9 01       	movw	r22, r18
    2f70:	64 5c       	subi	r22, 0xC4	; 196
    2f72:	7f 4f       	sbci	r23, 0xFF	; 255
    2f74:	e0 91 00 01 	lds	r30, 0x0100	; 0x800100 <_edata>
    2f78:	f0 91 01 01 	lds	r31, 0x0101	; 0x800101 <_edata+0x1>
    2f7c:	e6 0f       	add	r30, r22
    2f7e:	f7 1f       	adc	r31, r23
    2f80:	e4 91       	lpm	r30, Z
    2f82:	6b b1       	in	r22, 0x0b	; 11
    2f84:	74 e0       	ldi	r23, 0x04	; 4
    2f86:	e7 9f       	mul	r30, r23
    2f88:	f0 01       	movw	r30, r0
    2f8a:	11 24       	eor	r1, r1
    2f8c:	63 70       	andi	r22, 0x03	; 3
    2f8e:	e6 2b       	or	r30, r22
    2f90:	eb b9       	out	0x0b, r30	; 11
            PWCLK_GCLK;
    2f92:	65 b1       	in	r22, 0x05	; 5
    2f94:	6a 60       	ori	r22, 0x0A	; 10
    2f96:	65 b9       	out	0x05, r22	; 5
    2f98:	65 b1       	in	r22, 0x05	; 5
    2f9a:	65 7f       	andi	r22, 0xF5	; 245
    2f9c:	65 b9       	out	0x05, r22	; 5
            PWCLK_GCLK;
    2f9e:	65 b1       	in	r22, 0x05	; 5
    2fa0:	6a 60       	ori	r22, 0x0A	; 10
    2fa2:	65 b9       	out	0x05, r22	; 5
    2fa4:	65 b1       	in	r22, 0x05	; 5
    2fa6:	65 7f       	andi	r22, 0xF5	; 245
    2fa8:	65 b9       	out	0x05, r22	; 5
            SET_COLOR(pgm_read_byte(buffer + index + 61));
    2faa:	b9 01       	movw	r22, r18
    2fac:	63 5c       	subi	r22, 0xC3	; 195
    2fae:	7f 4f       	sbci	r23, 0xFF	; 255
    2fb0:	e0 91 00 01 	lds	r30, 0x0100	; 0x800100 <_edata>
    2fb4:	f0 91 01 01 	lds	r31, 0x0101	; 0x800101 <_edata+0x1>
    2fb8:	e6 0f       	add	r30, r22
    2fba:	f7 1f       	adc	r31, r23
    2fbc:	e4 91       	lpm	r30, Z
    2fbe:	6b b1       	in	r22, 0x0b	; 11
    2fc0:	74 e0       	ldi	r23, 0x04	; 4
    2fc2:	e7 9f       	mul	r30, r23
    2fc4:	f0 01       	movw	r30, r0
    2fc6:	11 24       	eor	r1, r1
    2fc8:	63 70       	andi	r22, 0x03	; 3
    2fca:	e6 2b       	or	r30, r22
    2fcc:	eb b9       	out	0x0b, r30	; 11
            PWCLK_GCLK;
    2fce:	65 b1       	in	r22, 0x05	; 5
    2fd0:	6a 60       	ori	r22, 0x0A	; 10
    2fd2:	65 b9       	out	0x05, r22	; 5
    2fd4:	65 b1       	in	r22, 0x05	; 5
    2fd6:	65 7f       	andi	r22, 0xF5	; 245
    2fd8:	65 b9       	out	0x05, r22	; 5
            PWCLK_GCLK;
    2fda:	65 b1       	in	r22, 0x05	; 5
    2fdc:	6a 60       	ori	r22, 0x0A	; 10
    2fde:	65 b9       	out	0x05, r22	; 5
    2fe0:	65 b1       	in	r22, 0x05	; 5
    2fe2:	65 7f       	andi	r22, 0xF5	; 245
    2fe4:	65 b9       	out	0x05, r22	; 5
            SET_COLOR(pgm_read_byte(buffer + index + 62));
    2fe6:	b9 01       	movw	r22, r18
    2fe8:	62 5c       	subi	r22, 0xC2	; 194
    2fea:	7f 4f       	sbci	r23, 0xFF	; 255
    2fec:	e0 91 00 01 	lds	r30, 0x0100	; 0x800100 <_edata>
    2ff0:	f0 91 01 01 	lds	r31, 0x0101	; 0x800101 <_edata+0x1>
    2ff4:	e6 0f       	add	r30, r22
    2ff6:	f7 1f       	adc	r31, r23
    2ff8:	e4 91       	lpm	r30, Z
    2ffa:	6b b1       	in	r22, 0x0b	; 11
    2ffc:	74 e0       	ldi	r23, 0x04	; 4
    2ffe:	e7 9f       	mul	r30, r23
    3000:	f0 01       	movw	r30, r0
    3002:	11 24       	eor	r1, r1
    3004:	63 70       	andi	r22, 0x03	; 3
    3006:	e6 2b       	or	r30, r22
    3008:	eb b9       	out	0x0b, r30	; 11
            PWCLK_GCLK;
    300a:	65 b1       	in	r22, 0x05	; 5
    300c:	6a 60       	ori	r22, 0x0A	; 10
    300e:	65 b9       	out	0x05, r22	; 5
    3010:	65 b1       	in	r22, 0x05	; 5
    3012:	65 7f       	andi	r22, 0xF5	; 245
    3014:	65 b9       	out	0x05, r22	; 5
            PWCLK_GCLK;
    3016:	65 b1       	in	r22, 0x05	; 5
    3018:	6a 60       	ori	r22, 0x0A	; 10
    301a:	65 b9       	out	0x05, r22	; 5
    301c:	65 b1       	in	r22, 0x05	; 5
    301e:	65 7f       	andi	r22, 0xF5	; 245
    3020:	65 b9       	out	0x05, r22	; 5
            SET_COLOR(pgm_read_byte(buffer + index + 63));
    3022:	21 5c       	subi	r18, 0xC1	; 193
    3024:	3f 4f       	sbci	r19, 0xFF	; 255
    3026:	e0 91 00 01 	lds	r30, 0x0100	; 0x800100 <_edata>
    302a:	f0 91 01 01 	lds	r31, 0x0101	; 0x800101 <_edata+0x1>
    302e:	e2 0f       	add	r30, r18
    3030:	f3 1f       	adc	r31, r19
    3032:	24 91       	lpm	r18, Z
    3034:	3b b1       	in	r19, 0x0b	; 11
